
bin/kernel/mnk.elf:     file format elf64-x86-64


Disassembly of section .stivalehdr:

0000000000200000 <stivale_hdr>:
	...
  200008:	01 00                	add    DWORD PTR [rax],eax
  20000a:	00 00                	add    BYTE PTR [rax],al
  20000c:	00 00                	add    BYTE PTR [rax],al
  20000e:	20 00                	and    BYTE PTR [rax],al
	...

Disassembly of section .text:

0000000000201000 <mnkmain>:
  201000:	55                   	push   rbp
  201001:	48 89 e5             	mov    rbp,rsp
  201004:	48 83 ec 10          	sub    rsp,0x10
  201008:	48 89 7d f8          	mov    QWORD PTR [rbp-0x8],rdi
  20100c:	48 89 75 f0          	mov    QWORD PTR [rbp-0x10],rsi
  201010:	e8 35 03 00 00       	call   20134a <sys::config::calculate_kernel_size()>
  201015:	48 8b 45 f8          	mov    rax,QWORD PTR [rbp-0x8]
  201019:	48 8d 50 08          	lea    rdx,[rax+0x8]
  20101d:	48 8b 45 f8          	mov    rax,QWORD PTR [rbp-0x8]
  201021:	48 83 c0 18          	add    rax,0x18
  201025:	48 89 d6             	mov    rsi,rdx
  201028:	48 89 c7             	mov    rdi,rax
  20102b:	e8 8e 01 00 00       	call   2011be <sys::config::configure_memory(stivale_framebuffer*, stivale_memory_map*)>
  201030:	48 8b 45 f0          	mov    rax,QWORD PTR [rbp-0x10]
  201034:	48 89 c6             	mov    rsi,rax
  201037:	bf 00 00 00 00       	mov    edi,0x0
  20103c:	e8 7a 03 00 00       	call   2013bb <tss_install>
  201041:	e8 be 0d 00 00       	call   201e04 <load_idt>
  201046:	fb                   	sti    
  201047:	48 8b 45 f8          	mov    rax,QWORD PTR [rbp-0x8]
  20104b:	48 83 c0 18          	add    rax,0x18
  20104f:	48 89 c7             	mov    rdi,rax
  201052:	e8 2d 02 00 00       	call   201284 <sys::config::configure_graphics(stivale_framebuffer*)>
  201057:	48 8b 45 f8          	mov    rax,QWORD PTR [rbp-0x8]
  20105b:	48 8b 40 28          	mov    rax,QWORD PTR [rax+0x28]
  20105f:	48 89 c7             	mov    rdi,rax
  201062:	e8 a3 02 00 00       	call   20130a <sys::config::configure_pci(sys::acpi::rsdp2*)>
  201067:	bf e8 03 00 00       	mov    edi,0x3e8
  20106c:	e8 27 27 00 00       	call   203798 <io::pit::set_c0_frequency(unsigned int)>
  201071:	e8 11 27 00 00       	call   203787 <io::pit::pit_init()>
  201076:	e8 12 2c 00 00       	call   203c8d <sys::audio::pcspk::init()>
  20107b:	e8 99 70 00 00       	call   208119 <io::keyboard::init()>
  201080:	e8 03 03 00 00       	call   201388 <sys::config::configure_userspace()>
  201085:	90                   	nop
  201086:	c9                   	leave  
  201087:	c3                   	ret    

0000000000201088 <sys::config::setup_paging(stivale_framebuffer*)>:
  201088:	55                   	push   rbp
  201089:	48 89 e5             	mov    rbp,rsp
  20108c:	48 83 ec 30          	sub    rsp,0x30
  201090:	48 89 7d d8          	mov    QWORD PTR [rbp-0x28],rdi
  201094:	e8 57 76 00 00       	call   2086f0 <configure_pat>
  201099:	e8 2b 1c 00 00       	call   202cc9 <request_page>
  20109e:	48 c7 c2 10 01 21 00 	mov    rdx,0x210110
  2010a5:	48 89 02             	mov    QWORD PTR [rdx],rax
  2010a8:	48 c7 c0 10 01 21 00 	mov    rax,0x210110
  2010af:	48 8b 00             	mov    rax,QWORD PTR [rax]
  2010b2:	ba 00 10 00 00       	mov    edx,0x1000
  2010b7:	be 00 00 00 00       	mov    esi,0x0
  2010bc:	48 89 c7             	mov    rdi,rax
  2010bf:	e8 c6 1e 00 00       	call   202f8a <memory::operations::memset(void*, unsigned char, unsigned long)>
  2010c4:	48 c7 c0 10 01 21 00 	mov    rax,0x210110
  2010cb:	48 8b 08             	mov    rcx,QWORD PTR [rax]
  2010ce:	48 c7 c0 10 01 21 00 	mov    rax,0x210110
  2010d5:	48 8b 00             	mov    rax,QWORD PTR [rax]
  2010d8:	ba 00 00 00 00       	mov    edx,0x0
  2010dd:	48 89 ce             	mov    rsi,rcx
  2010e0:	48 89 c7             	mov    rdi,rax
  2010e3:	e8 66 1f 00 00       	call   20304e <memory::paging::map_memory(void*, void*, bool)>
  2010e8:	48 c7 45 f8 00 00 00 	mov    QWORD PTR [rbp-0x8],0x0
  2010ef:	00 
  2010f0:	ba 00 00 00 00       	mov    edx,0x0
  2010f5:	be 00 00 00 00       	mov    esi,0x0
  2010fa:	bf 00 00 00 00       	mov    edi,0x0
  2010ff:	e8 d6 16 00 00       	call   2027da <memory::pmm::get_total_memory_size(stivale_memory_map*, unsigned long, unsigned long)>
  201104:	48 39 45 f8          	cmp    QWORD PTR [rbp-0x8],rax
  201108:	0f 92 c0             	setb   al
  20110b:	84 c0                	test   al,al
  20110d:	74 22                	je     201131 <sys::config::setup_paging(stivale_framebuffer*)+0xa9>
  20110f:	48 8b 4d f8          	mov    rcx,QWORD PTR [rbp-0x8]
  201113:	48 8b 45 f8          	mov    rax,QWORD PTR [rbp-0x8]
  201117:	ba 00 00 00 00       	mov    edx,0x0
  20111c:	48 89 ce             	mov    rsi,rcx
  20111f:	48 89 c7             	mov    rdi,rax
  201122:	e8 27 1f 00 00       	call   20304e <memory::paging::map_memory(void*, void*, bool)>
  201127:	48 81 45 f8 00 10 00 	add    QWORD PTR [rbp-0x8],0x1000
  20112e:	00 
  20112f:	eb bf                	jmp    2010f0 <sys::config::setup_paging(stivale_framebuffer*)+0x68>
  201131:	48 8b 45 d8          	mov    rax,QWORD PTR [rbp-0x28]
  201135:	48 8b 00             	mov    rax,QWORD PTR [rax]
  201138:	48 89 45 e8          	mov    QWORD PTR [rbp-0x18],rax
  20113c:	48 8b 45 d8          	mov    rax,QWORD PTR [rbp-0x28]
  201140:	0f b7 40 0a          	movzx  eax,WORD PTR [rax+0xa]
  201144:	0f b7 d0             	movzx  edx,ax
  201147:	48 8b 45 d8          	mov    rax,QWORD PTR [rbp-0x28]
  20114b:	0f b7 40 0c          	movzx  eax,WORD PTR [rax+0xc]
  20114f:	0f b7 c0             	movzx  eax,ax
  201152:	48 0f af d0          	imul   rdx,rax
  201156:	48 8b 45 d8          	mov    rax,QWORD PTR [rbp-0x28]
  20115a:	0f b7 40 0e          	movzx  eax,WORD PTR [rax+0xe]
  20115e:	66 c1 e8 03          	shr    ax,0x3
  201162:	0f b7 c0             	movzx  eax,ax
  201165:	48 0f af c2          	imul   rax,rdx
  201169:	48 05 00 04 00 00    	add    rax,0x400
  20116f:	48 89 45 e0          	mov    QWORD PTR [rbp-0x20],rax
  201173:	48 8b 45 e8          	mov    rax,QWORD PTR [rbp-0x18]
  201177:	48 89 45 f0          	mov    QWORD PTR [rbp-0x10],rax
  20117b:	48 8b 55 e8          	mov    rdx,QWORD PTR [rbp-0x18]
  20117f:	48 8b 45 e0          	mov    rax,QWORD PTR [rbp-0x20]
  201183:	48 01 d0             	add    rax,rdx
  201186:	48 39 45 f0          	cmp    QWORD PTR [rbp-0x10],rax
  20118a:	73 22                	jae    2011ae <sys::config::setup_paging(stivale_framebuffer*)+0x126>
  20118c:	48 8b 4d f0          	mov    rcx,QWORD PTR [rbp-0x10]
  201190:	48 8b 45 f0          	mov    rax,QWORD PTR [rbp-0x10]
  201194:	ba 01 00 00 00       	mov    edx,0x1
  201199:	48 89 ce             	mov    rsi,rcx
  20119c:	48 89 c7             	mov    rdi,rax
  20119f:	e8 aa 1e 00 00       	call   20304e <memory::paging::map_memory(void*, void*, bool)>
  2011a4:	48 81 45 f0 00 10 00 	add    QWORD PTR [rbp-0x10],0x1000
  2011ab:	00 
  2011ac:	eb cd                	jmp    20117b <sys::config::setup_paging(stivale_framebuffer*)+0xf3>
  2011ae:	48 c7 c0 10 01 21 00 	mov    rax,0x210110
  2011b5:	48 8b 00             	mov    rax,QWORD PTR [rax]
  2011b8:	0f 22 d8             	mov    cr3,rax
  2011bb:	90                   	nop
  2011bc:	c9                   	leave  
  2011bd:	c3                   	ret    

00000000002011be <sys::config::configure_memory(stivale_framebuffer*, stivale_memory_map*)>:
  2011be:	55                   	push   rbp
  2011bf:	48 89 e5             	mov    rbp,rsp
  2011c2:	48 83 ec 20          	sub    rsp,0x20
  2011c6:	48 89 7d e8          	mov    QWORD PTR [rbp-0x18],rdi
  2011ca:	48 89 75 e0          	mov    QWORD PTR [rbp-0x20],rsi
  2011ce:	48 8b 45 e8          	mov    rax,QWORD PTR [rbp-0x18]
  2011d2:	48 8b 00             	mov    rax,QWORD PTR [rax]
  2011d5:	ba ff ff 00 00       	mov    edx,0xffff
  2011da:	be ff 00 00 00       	mov    esi,0xff
  2011df:	48 89 c7             	mov    rdi,rax
  2011e2:	e8 a3 1d 00 00       	call   202f8a <memory::operations::memset(void*, unsigned char, unsigned long)>
  2011e7:	48 8b 45 e0          	mov    rax,QWORD PTR [rbp-0x20]
  2011eb:	48 8b 50 08          	mov    rdx,QWORD PTR [rax+0x8]
  2011ef:	48 89 d0             	mov    rax,rdx
  2011f2:	48 01 c0             	add    rax,rax
  2011f5:	48 01 d0             	add    rax,rdx
  2011f8:	48 c1 e0 03          	shl    rax,0x3
  2011fc:	48 89 c1             	mov    rcx,rax
  2011ff:	48 8b 45 e0          	mov    rax,QWORD PTR [rbp-0x20]
  201203:	ba 18 00 00 00       	mov    edx,0x18
  201208:	48 89 ce             	mov    rsi,rcx
  20120b:	48 89 c7             	mov    rdi,rax
  20120e:	e8 86 16 00 00       	call   202899 <memory::pmm::initialize(stivale_memory_map*, unsigned long, unsigned long)>
  201213:	48 8b 45 e8          	mov    rax,QWORD PTR [rbp-0x18]
  201217:	48 89 c7             	mov    rdi,rax
  20121a:	e8 69 fe ff ff       	call   201088 <sys::config::setup_paging(stivale_framebuffer*)>
  20121f:	c7 45 fc 00 00 00 00 	mov    DWORD PTR [rbp-0x4],0x0
  201226:	81 7d fc ff 00 00 00 	cmp    DWORD PTR [rbp-0x4],0xff
  20122d:	7f 3e                	jg     20126d <sys::config::configure_memory(stivale_framebuffer*, stivale_memory_map*)+0xaf>
  20122f:	48 b8 00 00 00 00 00 	movabs rax,0xffff800000000000
  201236:	80 ff ff 
  201239:	48 89 45 f0          	mov    QWORD PTR [rbp-0x10],rax
  20123d:	e8 87 1a 00 00       	call   202cc9 <request_page>
  201242:	48 89 c1             	mov    rcx,rax
  201245:	48 8b 45 f0          	mov    rax,QWORD PTR [rbp-0x10]
  201249:	ba 00 00 00 00       	mov    edx,0x0
  20124e:	48 89 ce             	mov    rsi,rcx
  201251:	48 89 c7             	mov    rdi,rax
  201254:	e8 f5 1d 00 00       	call   20304e <memory::paging::map_memory(void*, void*, bool)>
  201259:	48 8b 45 f0          	mov    rax,QWORD PTR [rbp-0x10]
  20125d:	48 05 00 10 00 00    	add    rax,0x1000
  201263:	48 89 45 f0          	mov    QWORD PTR [rbp-0x10],rax
  201267:	83 45 fc 01          	add    DWORD PTR [rbp-0x4],0x1
  20126b:	eb b9                	jmp    201226 <sys::config::configure_memory(stivale_framebuffer*, stivale_memory_map*)+0x68>
  20126d:	be 00 00 10 00       	mov    esi,0x100000
  201272:	48 bf 00 00 00 00 00 	movabs rdi,0xffff800000000000
  201279:	80 ff ff 
  20127c:	e8 67 11 00 00       	call   2023e8 <memory::heap::initialize_heap(void*, unsigned long)>
  201281:	90                   	nop
  201282:	c9                   	leave  
  201283:	c3                   	ret    

0000000000201284 <sys::config::configure_graphics(stivale_framebuffer*)>:
  201284:	55                   	push   rbp
  201285:	48 89 e5             	mov    rbp,rsp
  201288:	48 83 ec 10          	sub    rsp,0x10
  20128c:	48 89 7d f8          	mov    QWORD PTR [rbp-0x8],rdi
  201290:	48 c7 c1 c0 01 21 00 	mov    rcx,0x2101c0
  201297:	48 8b 45 f8          	mov    rax,QWORD PTR [rbp-0x8]
  20129b:	48 8b 50 08          	mov    rdx,QWORD PTR [rax+0x8]
  20129f:	48 8b 00             	mov    rax,QWORD PTR [rax]
  2012a2:	48 89 01             	mov    QWORD PTR [rcx],rax
  2012a5:	48 89 51 08          	mov    QWORD PTR [rcx+0x8],rdx
  2012a9:	48 c7 c0 c0 01 21 00 	mov    rax,0x2101c0
  2012b0:	0f b7 40 0a          	movzx  eax,WORD PTR [rax+0xa]
  2012b4:	0f b7 d0             	movzx  edx,ax
  2012b7:	48 c7 c0 c0 01 21 00 	mov    rax,0x2101c0
  2012be:	0f b7 40 0c          	movzx  eax,WORD PTR [rax+0xc]
  2012c2:	0f b7 c0             	movzx  eax,ax
  2012c5:	0f af d0             	imul   edx,eax
  2012c8:	48 c7 c0 c0 01 21 00 	mov    rax,0x2101c0
  2012cf:	0f b7 40 0e          	movzx  eax,WORD PTR [rax+0xe]
  2012d3:	66 c1 e8 03          	shr    ax,0x3
  2012d7:	0f b7 c0             	movzx  eax,ax
  2012da:	0f af c2             	imul   eax,edx
  2012dd:	8d 90 ff 0f 00 00    	lea    edx,[rax+0xfff]
  2012e3:	85 c0                	test   eax,eax
  2012e5:	0f 48 c2             	cmovs  eax,edx
  2012e8:	c1 f8 0c             	sar    eax,0xc
  2012eb:	83 c0 01             	add    eax,0x1
  2012ee:	48 98                	cdqe   
  2012f0:	48 89 c7             	mov    rdi,rax
  2012f3:	e8 3b 1a 00 00       	call   202d33 <request_pages>
  2012f8:	48 c7 c2 d0 01 21 00 	mov    rdx,0x2101d0
  2012ff:	48 89 02             	mov    QWORD PTR [rdx],rax
  201302:	e8 1b 31 00 00       	call   204422 <io::tty::initialize()>
  201307:	90                   	nop
  201308:	c9                   	leave  
  201309:	c3                   	ret    

000000000020130a <sys::config::configure_pci(sys::acpi::rsdp2*)>:
  20130a:	55                   	push   rbp
  20130b:	48 89 e5             	mov    rbp,rsp
  20130e:	48 83 ec 20          	sub    rsp,0x20
  201312:	48 89 7d e8          	mov    QWORD PTR [rbp-0x18],rdi
  201316:	48 c7 c0 88 01 21 00 	mov    rax,0x210188
  20131d:	48 8b 55 e8          	mov    rdx,QWORD PTR [rbp-0x18]
  201321:	48 89 10             	mov    QWORD PTR [rax],rdx
  201324:	48 8d 3d d5 8c 00 00 	lea    rdi,[rip+0x8cd5]        # 20a000 <$help+0x658>
  20132b:	e8 5a 2f 00 00       	call   20428a <sys::acpi::get_table(char*)>
  201330:	48 89 45 f8          	mov    QWORD PTR [rbp-0x8],rax
  201334:	48 c7 c0 80 01 21 00 	mov    rax,0x210180
  20133b:	48 8b 55 f8          	mov    rdx,QWORD PTR [rbp-0x8]
  20133f:	48 89 10             	mov    QWORD PTR [rax],rdx
  201342:	e8 4a 2e 00 00       	call   204191 <io::pci::enumerate_pci()>
  201347:	90                   	nop
  201348:	c9                   	leave  
  201349:	c3                   	ret    

000000000020134a <sys::config::calculate_kernel_size()>:
  20134a:	55                   	push   rbp
  20134b:	48 89 e5             	mov    rbp,rsp
  20134e:	48 c7 c0 00 20 21 00 	mov    rax,0x212000
  201355:	48 89 c2             	mov    rdx,rax
  201358:	48 c7 c0 00 00 20 00 	mov    rax,0x200000
  20135f:	48 89 c1             	mov    rcx,rax
  201362:	48 89 d0             	mov    rax,rdx
  201365:	48 29 c8             	sub    rax,rcx
  201368:	48 89 05 99 cc 00 00 	mov    QWORD PTR [rip+0xcc99],rax        # 20e008 <sys::config::__kernel_size>
  20136f:	48 8b 05 92 cc 00 00 	mov    rax,QWORD PTR [rip+0xcc92]        # 20e008 <sys::config::__kernel_size>
  201376:	48 c1 e8 0c          	shr    rax,0xc
  20137a:	48 83 c0 01          	add    rax,0x1
  20137e:	48 89 05 7b cc 00 00 	mov    QWORD PTR [rip+0xcc7b],rax        # 20e000 <sys::config::__kernel_pages>
  201385:	90                   	nop
  201386:	5d                   	pop    rbp
  201387:	c3                   	ret    

0000000000201388 <sys::config::configure_userspace()>:
  201388:	55                   	push   rbp
  201389:	48 89 e5             	mov    rbp,rsp
  20138c:	48 c7 c0 00 90 20 00 	mov    rax,0x209000
  201393:	48 89 c7             	mov    rdi,rax
  201396:	e8 1d 21 00 00       	call   2034b8 <donate_to_userspace>
  20139b:	90                   	nop
  20139c:	5d                   	pop    rbp
  20139d:	c3                   	ret    

000000000020139e <cpu::tss::tss_init()>:
  20139e:	55                   	push   rbp
  20139f:	48 89 e5             	mov    rbp,rsp
  2013a2:	ba 68 00 00 00       	mov    edx,0x68
  2013a7:	be 00 00 00 00       	mov    esi,0x0
  2013ac:	48 8d 3d 6d cc 00 00 	lea    rdi,[rip+0xcc6d]        # 20e020 <s_tss_descriptors>
  2013b3:	e8 d2 1b 00 00       	call   202f8a <memory::operations::memset(void*, unsigned char, unsigned long)>
  2013b8:	90                   	nop
  2013b9:	5d                   	pop    rbp
  2013ba:	c3                   	ret    

00000000002013bb <tss_install>:
  2013bb:	55                   	push   rbp
  2013bc:	48 89 e5             	mov    rbp,rsp
  2013bf:	48 83 ec 20          	sub    rsp,0x20
  2013c3:	89 7d ec             	mov    DWORD PTR [rbp-0x14],edi
  2013c6:	48 89 75 e0          	mov    QWORD PTR [rbp-0x20],rsi
  2013ca:	e8 fa 18 00 00       	call   202cc9 <request_page>
  2013cf:	48 05 00 10 00 00    	add    rax,0x1000
  2013d5:	48 89 05 ac cc 00 00 	mov    QWORD PTR [rip+0xccac],rax        # 20e088 <isr_stack>
  2013dc:	e8 e8 18 00 00       	call   202cc9 <request_page>
  2013e1:	48 05 00 10 00 00    	add    rax,0x1000
  2013e7:	48 89 05 a2 cc 00 00 	mov    QWORD PTR [rip+0xcca2],rax        # 20e090 <irq_stack>
  2013ee:	e8 d6 18 00 00       	call   202cc9 <request_page>
  2013f3:	48 05 00 10 00 00    	add    rax,0x1000
  2013f9:	48 89 05 98 cc 00 00 	mov    QWORD PTR [rip+0xcc98],rax        # 20e098 <sgi_stack>
  201400:	48 8b 05 81 cc 00 00 	mov    rax,QWORD PTR [rip+0xcc81]        # 20e088 <isr_stack>
  201407:	48 2d 00 10 00 00    	sub    rax,0x1000
  20140d:	48 89 c1             	mov    rcx,rax
  201410:	48 8b 05 71 cc 00 00 	mov    rax,QWORD PTR [rip+0xcc71]        # 20e088 <isr_stack>
  201417:	48 2d 00 10 00 00    	sub    rax,0x1000
  20141d:	ba 00 00 00 00       	mov    edx,0x0
  201422:	48 89 ce             	mov    rsi,rcx
  201425:	48 89 c7             	mov    rdi,rax
  201428:	e8 21 1c 00 00       	call   20304e <memory::paging::map_memory(void*, void*, bool)>
  20142d:	48 8b 05 5c cc 00 00 	mov    rax,QWORD PTR [rip+0xcc5c]        # 20e090 <irq_stack>
  201434:	48 2d 00 10 00 00    	sub    rax,0x1000
  20143a:	48 89 c1             	mov    rcx,rax
  20143d:	48 8b 05 4c cc 00 00 	mov    rax,QWORD PTR [rip+0xcc4c]        # 20e090 <irq_stack>
  201444:	48 2d 00 10 00 00    	sub    rax,0x1000
  20144a:	ba 00 00 00 00       	mov    edx,0x0
  20144f:	48 89 ce             	mov    rsi,rcx
  201452:	48 89 c7             	mov    rdi,rax
  201455:	e8 f4 1b 00 00       	call   20304e <memory::paging::map_memory(void*, void*, bool)>
  20145a:	48 8b 05 37 cc 00 00 	mov    rax,QWORD PTR [rip+0xcc37]        # 20e098 <sgi_stack>
  201461:	48 2d 00 10 00 00    	sub    rax,0x1000
  201467:	48 89 c1             	mov    rcx,rax
  20146a:	48 8b 05 27 cc 00 00 	mov    rax,QWORD PTR [rip+0xcc27]        # 20e098 <sgi_stack>
  201471:	48 2d 00 10 00 00    	sub    rax,0x1000
  201477:	ba 00 00 00 00       	mov    edx,0x0
  20147c:	48 89 ce             	mov    rsi,rcx
  20147f:	48 89 c7             	mov    rdi,rax
  201482:	e8 c7 1b 00 00       	call   20304e <memory::paging::map_memory(void*, void*, bool)>
  201487:	8b 45 ec             	mov    eax,DWORD PTR [rbp-0x14]
  20148a:	48 63 d0             	movsxd rdx,eax
  20148d:	48 89 d0             	mov    rax,rdx
  201490:	48 01 c0             	add    rax,rax
  201493:	48 01 d0             	add    rax,rdx
  201496:	48 c1 e0 02          	shl    rax,0x2
  20149a:	48 01 d0             	add    rax,rdx
  20149d:	48 c1 e0 03          	shl    rax,0x3
  2014a1:	48 8d 15 78 cb 00 00 	lea    rdx,[rip+0xcb78]        # 20e020 <s_tss_descriptors>
  2014a8:	48 01 d0             	add    rax,rdx
  2014ab:	48 89 45 f8          	mov    QWORD PTR [rbp-0x8],rax
  2014af:	48 8b 45 f8          	mov    rax,QWORD PTR [rbp-0x8]
  2014b3:	ba 68 00 00 00       	mov    edx,0x68
  2014b8:	be 00 00 00 00       	mov    esi,0x0
  2014bd:	48 89 c7             	mov    rdi,rax
  2014c0:	e8 c5 1a 00 00       	call   202f8a <memory::operations::memset(void*, unsigned char, unsigned long)>
  2014c5:	48 8b 45 f8          	mov    rax,QWORD PTR [rbp-0x8]
  2014c9:	be 68 00 00 00       	mov    esi,0x68
  2014ce:	48 89 c7             	mov    rdi,rax
  2014d1:	e8 6d 03 00 00       	call   201843 <cpu::gdt::gdt_install_tss(unsigned long, unsigned long)>
  2014d6:	8b 45 ec             	mov    eax,DWORD PTR [rbp-0x14]
  2014d9:	48 63 d0             	movsxd rdx,eax
  2014dc:	48 89 d0             	mov    rax,rdx
  2014df:	48 01 c0             	add    rax,rax
  2014e2:	48 01 d0             	add    rax,rdx
  2014e5:	48 c1 e0 02          	shl    rax,0x2
  2014e9:	48 01 d0             	add    rax,rdx
  2014ec:	48 c1 e0 03          	shl    rax,0x3
  2014f0:	48 89 c1             	mov    rcx,rax
  2014f3:	48 8d 15 26 cb 00 00 	lea    rdx,[rip+0xcb26]        # 20e020 <s_tss_descriptors>
  2014fa:	48 8b 45 e0          	mov    rax,QWORD PTR [rbp-0x20]
  2014fe:	48 89 44 11 04       	mov    QWORD PTR [rcx+rdx*1+0x4],rax
  201503:	8b 45 ec             	mov    eax,DWORD PTR [rbp-0x14]
  201506:	48 63 d0             	movsxd rdx,eax
  201509:	48 89 d0             	mov    rax,rdx
  20150c:	48 01 c0             	add    rax,rax
  20150f:	48 01 d0             	add    rax,rdx
  201512:	48 c1 e0 02          	shl    rax,0x2
  201516:	48 01 d0             	add    rax,rdx
  201519:	48 c1 e0 03          	shl    rax,0x3
  20151d:	48 89 c2             	mov    rdx,rax
  201520:	48 8d 05 5f cb 00 00 	lea    rax,[rip+0xcb5f]        # 20e086 <s_tss_descriptors+0x66>
  201527:	66 c7 04 02 68 00    	mov    WORD PTR [rdx+rax*1],0x68
  20152d:	48 8b 05 54 cb 00 00 	mov    rax,QWORD PTR [rip+0xcb54]        # 20e088 <isr_stack>
  201534:	48 89 c1             	mov    rcx,rax
  201537:	8b 45 ec             	mov    eax,DWORD PTR [rbp-0x14]
  20153a:	48 63 d0             	movsxd rdx,eax
  20153d:	48 89 d0             	mov    rax,rdx
  201540:	48 01 c0             	add    rax,rax
  201543:	48 01 d0             	add    rax,rdx
  201546:	48 c1 e0 02          	shl    rax,0x2
  20154a:	48 01 d0             	add    rax,rdx
  20154d:	48 c1 e0 03          	shl    rax,0x3
  201551:	48 89 c2             	mov    rdx,rax
  201554:	48 8d 05 e5 ca 00 00 	lea    rax,[rip+0xcae5]        # 20e040 <s_tss_descriptors+0x20>
  20155b:	48 89 4c 02 04       	mov    QWORD PTR [rdx+rax*1+0x4],rcx
  201560:	48 8b 05 29 cb 00 00 	mov    rax,QWORD PTR [rip+0xcb29]        # 20e090 <irq_stack>
  201567:	48 89 c1             	mov    rcx,rax
  20156a:	8b 45 ec             	mov    eax,DWORD PTR [rbp-0x14]
  20156d:	48 63 d0             	movsxd rdx,eax
  201570:	48 89 d0             	mov    rax,rdx
  201573:	48 01 c0             	add    rax,rax
  201576:	48 01 d0             	add    rax,rdx
  201579:	48 c1 e0 02          	shl    rax,0x2
  20157d:	48 01 d0             	add    rax,rdx
  201580:	48 c1 e0 03          	shl    rax,0x3
  201584:	48 89 c2             	mov    rdx,rax
  201587:	48 8d 05 ba ca 00 00 	lea    rax,[rip+0xcaba]        # 20e048 <s_tss_descriptors+0x28>
  20158e:	48 89 4c 02 04       	mov    QWORD PTR [rdx+rax*1+0x4],rcx
  201593:	48 8b 05 fe ca 00 00 	mov    rax,QWORD PTR [rip+0xcafe]        # 20e098 <sgi_stack>
  20159a:	48 89 c1             	mov    rcx,rax
  20159d:	8b 45 ec             	mov    eax,DWORD PTR [rbp-0x14]
  2015a0:	48 63 d0             	movsxd rdx,eax
  2015a3:	48 89 d0             	mov    rax,rdx
  2015a6:	48 01 c0             	add    rax,rax
  2015a9:	48 01 d0             	add    rax,rdx
  2015ac:	48 c1 e0 02          	shl    rax,0x2
  2015b0:	48 01 d0             	add    rax,rdx
  2015b3:	48 c1 e0 03          	shl    rax,0x3
  2015b7:	48 89 c2             	mov    rdx,rax
  2015ba:	48 8d 05 8f ca 00 00 	lea    rax,[rip+0xca8f]        # 20e050 <s_tss_descriptors+0x30>
  2015c1:	48 89 4c 02 04       	mov    QWORD PTR [rdx+rax*1+0x4],rcx
  2015c6:	bf 28 00 00 00       	mov    edi,0x28
  2015cb:	e8 17 71 00 00       	call   2086e7 <load_tss>
  2015d0:	90                   	nop
  2015d1:	c9                   	leave  
  2015d2:	c3                   	ret    

00000000002015d3 <cpu::tss::tss_setstack(int, unsigned long)>:
  2015d3:	55                   	push   rbp
  2015d4:	48 89 e5             	mov    rbp,rsp
  2015d7:	48 83 ec 10          	sub    rsp,0x10
  2015db:	89 7d fc             	mov    DWORD PTR [rbp-0x4],edi
  2015de:	48 89 75 f0          	mov    QWORD PTR [rbp-0x10],rsi
  2015e2:	8b 45 fc             	mov    eax,DWORD PTR [rbp-0x4]
  2015e5:	48 63 d0             	movsxd rdx,eax
  2015e8:	48 89 d0             	mov    rax,rdx
  2015eb:	48 01 c0             	add    rax,rax
  2015ee:	48 01 d0             	add    rax,rdx
  2015f1:	48 c1 e0 02          	shl    rax,0x2
  2015f5:	48 01 d0             	add    rax,rdx
  2015f8:	48 c1 e0 03          	shl    rax,0x3
  2015fc:	48 89 c1             	mov    rcx,rax
  2015ff:	48 8d 15 1a ca 00 00 	lea    rdx,[rip+0xca1a]        # 20e020 <s_tss_descriptors>
  201606:	48 8b 45 f0          	mov    rax,QWORD PTR [rbp-0x10]
  20160a:	48 89 44 11 04       	mov    QWORD PTR [rcx+rdx*1+0x4],rax
  20160f:	90                   	nop
  201610:	c9                   	leave  
  201611:	c3                   	ret    

0000000000201612 <tss_get>:
  201612:	55                   	push   rbp
  201613:	48 89 e5             	mov    rbp,rsp
  201616:	48 83 ec 08          	sub    rsp,0x8
  20161a:	89 7d fc             	mov    DWORD PTR [rbp-0x4],edi
  20161d:	8b 45 fc             	mov    eax,DWORD PTR [rbp-0x4]
  201620:	48 63 d0             	movsxd rdx,eax
  201623:	48 89 d0             	mov    rax,rdx
  201626:	48 01 c0             	add    rax,rax
  201629:	48 01 d0             	add    rax,rdx
  20162c:	48 c1 e0 02          	shl    rax,0x2
  201630:	48 01 d0             	add    rax,rdx
  201633:	48 c1 e0 03          	shl    rax,0x3
  201637:	48 8d 15 e2 c9 00 00 	lea    rdx,[rip+0xc9e2]        # 20e020 <s_tss_descriptors>
  20163e:	48 01 d0             	add    rax,rdx
  201641:	c9                   	leave  
  201642:	c3                   	ret    

0000000000201643 <userspace_debug_catch>:
  201643:	55                   	push   rbp
  201644:	48 89 e5             	mov    rbp,rsp
  201647:	90                   	nop
  201648:	5d                   	pop    rbp
  201649:	c3                   	ret    

000000000020164a <gdt_init>:
  20164a:	55                   	push   rbp
  20164b:	48 89 e5             	mov    rbp,rsp
  20164e:	66 c7 05 29 da 00 00 	mov    WORD PTR [rip+0xda29],0x7f        # 20f080 <s_gdt>
  201655:	7f 00 
  201657:	48 8d 05 a2 d9 00 00 	lea    rax,[rip+0xd9a2]        # 20f000 <s_gdt_descriptors>
  20165e:	48 89 05 1d da 00 00 	mov    QWORD PTR [rip+0xda1d],rax        # 20f082 <s_gdt+0x2>
  201665:	b9 00 00 00 00       	mov    ecx,0x0
  20166a:	ba 00 00 00 00       	mov    edx,0x0
  20166f:	be 00 00 00 00       	mov    esi,0x0
  201674:	bf 00 00 00 00       	mov    edi,0x0
  201679:	e8 73 00 00 00       	call   2016f1 <cpu::gdt::gdt_install_descriptor(unsigned long, unsigned long, unsigned char, unsigned char)>
  20167e:	b9 a0 00 00 00       	mov    ecx,0xa0
  201683:	ba 9a 00 00 00       	mov    edx,0x9a
  201688:	be 00 00 00 00       	mov    esi,0x0
  20168d:	bf 00 00 00 00       	mov    edi,0x0
  201692:	e8 5a 00 00 00       	call   2016f1 <cpu::gdt::gdt_install_descriptor(unsigned long, unsigned long, unsigned char, unsigned char)>
  201697:	b9 a0 00 00 00       	mov    ecx,0xa0
  20169c:	ba 92 00 00 00       	mov    edx,0x92
  2016a1:	be 00 00 00 00       	mov    esi,0x0
  2016a6:	bf 00 00 00 00       	mov    edi,0x0
  2016ab:	e8 41 00 00 00       	call   2016f1 <cpu::gdt::gdt_install_descriptor(unsigned long, unsigned long, unsigned char, unsigned char)>
  2016b0:	b9 a0 00 00 00       	mov    ecx,0xa0
  2016b5:	ba f2 00 00 00       	mov    edx,0xf2
  2016ba:	be 00 00 00 00       	mov    esi,0x0
  2016bf:	bf 00 00 00 00       	mov    edi,0x0
  2016c4:	e8 28 00 00 00       	call   2016f1 <cpu::gdt::gdt_install_descriptor(unsigned long, unsigned long, unsigned char, unsigned char)>
  2016c9:	b9 a0 00 00 00       	mov    ecx,0xa0
  2016ce:	ba fa 00 00 00       	mov    edx,0xfa
  2016d3:	be 00 00 00 00       	mov    esi,0x0
  2016d8:	bf 00 00 00 00       	mov    edi,0x0
  2016dd:	e8 0f 00 00 00       	call   2016f1 <cpu::gdt::gdt_install_descriptor(unsigned long, unsigned long, unsigned char, unsigned char)>
  2016e2:	48 8d 3d 97 d9 00 00 	lea    rdi,[rip+0xd997]        # 20f080 <s_gdt>
  2016e9:	e8 e2 6f 00 00       	call   2086d0 <load_gdt>
  2016ee:	90                   	nop
  2016ef:	5d                   	pop    rbp
  2016f0:	c3                   	ret    

00000000002016f1 <cpu::gdt::gdt_install_descriptor(unsigned long, unsigned long, unsigned char, unsigned char)>:
  2016f1:	55                   	push   rbp
  2016f2:	48 89 e5             	mov    rbp,rsp
  2016f5:	48 83 ec 18          	sub    rsp,0x18
  2016f9:	48 89 7d f8          	mov    QWORD PTR [rbp-0x8],rdi
  2016fd:	48 89 75 f0          	mov    QWORD PTR [rbp-0x10],rsi
  201701:	89 c8                	mov    eax,ecx
  201703:	88 55 ec             	mov    BYTE PTR [rbp-0x14],dl
  201706:	88 45 e8             	mov    BYTE PTR [rbp-0x18],al
  201709:	8b 05 7d d9 00 00    	mov    eax,DWORD PTR [rip+0xd97d]        # 20f08c <s_gdt_index>
  20170f:	83 f8 0f             	cmp    eax,0xf
  201712:	0f 87 28 01 00 00    	ja     201840 <cpu::gdt::gdt_install_descriptor(unsigned long, unsigned long, unsigned char, unsigned char)+0x14f>
  201718:	8b 15 6e d9 00 00    	mov    edx,DWORD PTR [rip+0xd96e]        # 20f08c <s_gdt_index>
  20171e:	48 8b 45 f8          	mov    rax,QWORD PTR [rbp-0x8]
  201722:	89 c1                	mov    ecx,eax
  201724:	89 d0                	mov    eax,edx
  201726:	48 8d 14 c5 00 00 00 	lea    rdx,[rax*8+0x0]
  20172d:	00 
  20172e:	48 8d 05 cd d8 00 00 	lea    rax,[rip+0xd8cd]        # 20f002 <s_gdt_descriptors+0x2>
  201735:	66 89 0c 02          	mov    WORD PTR [rdx+rax*1],cx
  201739:	48 8b 45 f8          	mov    rax,QWORD PTR [rbp-0x8]
  20173d:	48 c1 e8 10          	shr    rax,0x10
  201741:	48 89 c2             	mov    rdx,rax
  201744:	8b 05 42 d9 00 00    	mov    eax,DWORD PTR [rip+0xd942]        # 20f08c <s_gdt_index>
  20174a:	89 d1                	mov    ecx,edx
  20174c:	89 c0                	mov    eax,eax
  20174e:	48 8d 14 c5 00 00 00 	lea    rdx,[rax*8+0x0]
  201755:	00 
  201756:	48 8d 05 a7 d8 00 00 	lea    rax,[rip+0xd8a7]        # 20f004 <s_gdt_descriptors+0x4>
  20175d:	88 0c 02             	mov    BYTE PTR [rdx+rax*1],cl
  201760:	48 8b 45 f8          	mov    rax,QWORD PTR [rbp-0x8]
  201764:	48 c1 e8 18          	shr    rax,0x18
  201768:	48 89 c2             	mov    rdx,rax
  20176b:	8b 05 1b d9 00 00    	mov    eax,DWORD PTR [rip+0xd91b]        # 20f08c <s_gdt_index>
  201771:	89 d1                	mov    ecx,edx
  201773:	89 c0                	mov    eax,eax
  201775:	48 8d 14 c5 00 00 00 	lea    rdx,[rax*8+0x0]
  20177c:	00 
  20177d:	48 8d 05 83 d8 00 00 	lea    rax,[rip+0xd883]        # 20f007 <s_gdt_descriptors+0x7>
  201784:	88 0c 02             	mov    BYTE PTR [rdx+rax*1],cl
  201787:	8b 15 ff d8 00 00    	mov    edx,DWORD PTR [rip+0xd8ff]        # 20f08c <s_gdt_index>
  20178d:	48 8b 45 f0          	mov    rax,QWORD PTR [rbp-0x10]
  201791:	89 c1                	mov    ecx,eax
  201793:	89 d0                	mov    eax,edx
  201795:	48 8d 14 c5 00 00 00 	lea    rdx,[rax*8+0x0]
  20179c:	00 
  20179d:	48 8d 05 5c d8 00 00 	lea    rax,[rip+0xd85c]        # 20f000 <s_gdt_descriptors>
  2017a4:	66 89 0c 02          	mov    WORD PTR [rdx+rax*1],cx
  2017a8:	8b 05 de d8 00 00    	mov    eax,DWORD PTR [rip+0xd8de]        # 20f08c <s_gdt_index>
  2017ae:	89 c0                	mov    eax,eax
  2017b0:	48 8d 0c c5 00 00 00 	lea    rcx,[rax*8+0x0]
  2017b7:	00 
  2017b8:	48 8d 15 46 d8 00 00 	lea    rdx,[rip+0xd846]        # 20f005 <s_gdt_descriptors+0x5>
  2017bf:	0f b6 45 ec          	movzx  eax,BYTE PTR [rbp-0x14]
  2017c3:	88 04 11             	mov    BYTE PTR [rcx+rdx*1],al
  2017c6:	48 8b 45 f0          	mov    rax,QWORD PTR [rbp-0x10]
  2017ca:	48 c1 e8 10          	shr    rax,0x10
  2017ce:	89 c2                	mov    edx,eax
  2017d0:	8b 05 b6 d8 00 00    	mov    eax,DWORD PTR [rip+0xd8b6]        # 20f08c <s_gdt_index>
  2017d6:	89 d1                	mov    ecx,edx
  2017d8:	83 e1 0f             	and    ecx,0xf
  2017db:	89 c0                	mov    eax,eax
  2017dd:	48 8d 14 c5 00 00 00 	lea    rdx,[rax*8+0x0]
  2017e4:	00 
  2017e5:	48 8d 05 1a d8 00 00 	lea    rax,[rip+0xd81a]        # 20f006 <s_gdt_descriptors+0x6>
  2017ec:	88 0c 02             	mov    BYTE PTR [rdx+rax*1],cl
  2017ef:	8b 05 97 d8 00 00    	mov    eax,DWORD PTR [rip+0xd897]        # 20f08c <s_gdt_index>
  2017f5:	89 c0                	mov    eax,eax
  2017f7:	48 8d 14 c5 00 00 00 	lea    rdx,[rax*8+0x0]
  2017fe:	00 
  2017ff:	48 8d 05 00 d8 00 00 	lea    rax,[rip+0xd800]        # 20f006 <s_gdt_descriptors+0x6>
  201806:	0f b6 14 02          	movzx  edx,BYTE PTR [rdx+rax*1]
  20180a:	0f b6 45 e8          	movzx  eax,BYTE PTR [rbp-0x18]
  20180e:	83 e0 f0             	and    eax,0xfffffff0
  201811:	89 c1                	mov    ecx,eax
  201813:	8b 05 73 d8 00 00    	mov    eax,DWORD PTR [rip+0xd873]        # 20f08c <s_gdt_index>
  201819:	09 d1                	or     ecx,edx
  20181b:	89 c0                	mov    eax,eax
  20181d:	48 8d 14 c5 00 00 00 	lea    rdx,[rax*8+0x0]
  201824:	00 
  201825:	48 8d 05 da d7 00 00 	lea    rax,[rip+0xd7da]        # 20f006 <s_gdt_descriptors+0x6>
  20182c:	88 0c 02             	mov    BYTE PTR [rdx+rax*1],cl
  20182f:	8b 05 57 d8 00 00    	mov    eax,DWORD PTR [rip+0xd857]        # 20f08c <s_gdt_index>
  201835:	83 c0 01             	add    eax,0x1
  201838:	89 05 4e d8 00 00    	mov    DWORD PTR [rip+0xd84e],eax        # 20f08c <s_gdt_index>
  20183e:	eb 01                	jmp    201841 <cpu::gdt::gdt_install_descriptor(unsigned long, unsigned long, unsigned char, unsigned char)+0x150>
  201840:	90                   	nop
  201841:	c9                   	leave  
  201842:	c3                   	ret    

0000000000201843 <cpu::gdt::gdt_install_tss(unsigned long, unsigned long)>:
  201843:	55                   	push   rbp
  201844:	48 89 e5             	mov    rbp,rsp
  201847:	48 83 ec 20          	sub    rsp,0x20
  20184b:	48 89 7d e8          	mov    QWORD PTR [rbp-0x18],rdi
  20184f:	48 89 75 e0          	mov    QWORD PTR [rbp-0x20],rsi
  201853:	66 c7 45 fe 89 00    	mov    WORD PTR [rbp-0x2],0x89
  201859:	8b 05 2d d8 00 00    	mov    eax,DWORD PTR [rip+0xd82d]        # 20f08c <s_gdt_index>
  20185f:	89 c0                	mov    eax,eax
  201861:	48 8d 14 c5 00 00 00 	lea    rdx,[rax*8+0x0]
  201868:	00 
  201869:	48 8d 05 90 d7 00 00 	lea    rax,[rip+0xd790]        # 20f000 <s_gdt_descriptors>
  201870:	48 01 d0             	add    rax,rdx
  201873:	48 89 45 f0          	mov    QWORD PTR [rbp-0x10],rax
  201877:	8b 05 0f d8 00 00    	mov    eax,DWORD PTR [rip+0xd80f]        # 20f08c <s_gdt_index>
  20187d:	83 f8 0f             	cmp    eax,0xf
  201880:	0f 87 8b 00 00 00    	ja     201911 <cpu::gdt::gdt_install_tss(unsigned long, unsigned long)+0xce>
  201886:	0f b7 45 fe          	movzx  eax,WORD PTR [rbp-0x2]
  20188a:	89 c2                	mov    edx,eax
  20188c:	48 8b 45 f0          	mov    rax,QWORD PTR [rbp-0x10]
  201890:	88 50 05             	mov    BYTE PTR [rax+0x5],dl
  201893:	48 8b 45 e8          	mov    rax,QWORD PTR [rbp-0x18]
  201897:	89 c2                	mov    edx,eax
  201899:	48 8b 45 f0          	mov    rax,QWORD PTR [rbp-0x10]
  20189d:	66 89 50 02          	mov    WORD PTR [rax+0x2],dx
  2018a1:	48 8b 45 e8          	mov    rax,QWORD PTR [rbp-0x18]
  2018a5:	48 c1 e8 10          	shr    rax,0x10
  2018a9:	89 c2                	mov    edx,eax
  2018ab:	48 8b 45 f0          	mov    rax,QWORD PTR [rbp-0x10]
  2018af:	88 50 04             	mov    BYTE PTR [rax+0x4],dl
  2018b2:	48 8b 45 e8          	mov    rax,QWORD PTR [rbp-0x18]
  2018b6:	48 c1 e8 18          	shr    rax,0x18
  2018ba:	89 c2                	mov    edx,eax
  2018bc:	48 8b 45 f0          	mov    rax,QWORD PTR [rbp-0x10]
  2018c0:	88 50 07             	mov    BYTE PTR [rax+0x7],dl
  2018c3:	48 8b 45 e8          	mov    rax,QWORD PTR [rbp-0x18]
  2018c7:	48 c1 e8 20          	shr    rax,0x20
  2018cb:	89 c2                	mov    edx,eax
  2018cd:	48 8b 45 f0          	mov    rax,QWORD PTR [rbp-0x10]
  2018d1:	89 50 08             	mov    DWORD PTR [rax+0x8],edx
  2018d4:	48 8b 45 e0          	mov    rax,QWORD PTR [rbp-0x20]
  2018d8:	89 c2                	mov    edx,eax
  2018da:	48 8b 45 f0          	mov    rax,QWORD PTR [rbp-0x10]
  2018de:	66 89 10             	mov    WORD PTR [rax],dx
  2018e1:	48 8b 45 e0          	mov    rax,QWORD PTR [rbp-0x20]
  2018e5:	48 c1 e8 10          	shr    rax,0x10
  2018e9:	83 e0 0f             	and    eax,0xf
  2018ec:	89 c2                	mov    edx,eax
  2018ee:	48 8b 45 f0          	mov    rax,QWORD PTR [rbp-0x10]
  2018f2:	88 50 06             	mov    BYTE PTR [rax+0x6],dl
  2018f5:	48 8b 45 f0          	mov    rax,QWORD PTR [rbp-0x10]
  2018f9:	c7 40 0c 00 00 00 00 	mov    DWORD PTR [rax+0xc],0x0
  201900:	8b 05 86 d7 00 00    	mov    eax,DWORD PTR [rip+0xd786]        # 20f08c <s_gdt_index>
  201906:	83 c0 02             	add    eax,0x2
  201909:	89 05 7d d7 00 00    	mov    DWORD PTR [rip+0xd77d],eax        # 20f08c <s_gdt_index>
  20190f:	eb 01                	jmp    201912 <cpu::gdt::gdt_install_tss(unsigned long, unsigned long)+0xcf>
  201911:	90                   	nop
  201912:	c9                   	leave  
  201913:	c3                   	ret    

0000000000201914 <io::outb(unsigned short, unsigned char)>:
  201914:	55                   	push   rbp
  201915:	48 89 e5             	mov    rbp,rsp
  201918:	48 83 ec 08          	sub    rsp,0x8
  20191c:	89 f8                	mov    eax,edi
  20191e:	89 f2                	mov    edx,esi
  201920:	66 89 45 fc          	mov    WORD PTR [rbp-0x4],ax
  201924:	89 d0                	mov    eax,edx
  201926:	88 45 f8             	mov    BYTE PTR [rbp-0x8],al
  201929:	0f b6 45 f8          	movzx  eax,BYTE PTR [rbp-0x8]
  20192d:	0f b7 55 fc          	movzx  edx,WORD PTR [rbp-0x4]
  201931:	ee                   	out    dx,al
  201932:	90                   	nop
  201933:	c9                   	leave  
  201934:	c3                   	ret    

0000000000201935 <$get_symbol_label>:
  201935:	55                   	push   rbp
  201936:	48 89 e5             	mov    rbp,rsp
  201939:	48 83 ec 18          	sub    rsp,0x18
  20193d:	48 89 7d e8          	mov    QWORD PTR [rbp-0x18],rdi
  201941:	c7 45 fc 00 00 00 00 	mov    DWORD PTR [rbp-0x4],0x0
  201948:	48 c7 c2 60 c8 20 00 	mov    rdx,0x20c860
  20194f:	8b 45 fc             	mov    eax,DWORD PTR [rbp-0x4]
  201952:	48 98                	cdqe   
  201954:	48 c1 e0 04          	shl    rax,0x4
  201958:	48 01 d0             	add    rax,rdx
  20195b:	48 8b 00             	mov    rax,QWORD PTR [rax]
  20195e:	48 83 f8 ff          	cmp    rax,0xffffffffffffffff
  201962:	74 6d                	je     2019d1 <$get_symbol_label+0x9c>
  201964:	48 c7 c2 60 c8 20 00 	mov    rdx,0x20c860
  20196b:	8b 45 fc             	mov    eax,DWORD PTR [rbp-0x4]
  20196e:	48 98                	cdqe   
  201970:	48 c1 e0 04          	shl    rax,0x4
  201974:	48 01 d0             	add    rax,rdx
  201977:	48 8b 00             	mov    rax,QWORD PTR [rax]
  20197a:	48 39 45 e8          	cmp    QWORD PTR [rbp-0x18],rax
  20197e:	72 48                	jb     2019c8 <$get_symbol_label+0x93>
  201980:	8b 45 fc             	mov    eax,DWORD PTR [rbp-0x4]
  201983:	83 c0 01             	add    eax,0x1
  201986:	48 c7 c2 60 c8 20 00 	mov    rdx,0x20c860
  20198d:	48 98                	cdqe   
  20198f:	48 c1 e0 04          	shl    rax,0x4
  201993:	48 01 d0             	add    rax,rdx
  201996:	48 8b 00             	mov    rax,QWORD PTR [rax]
  201999:	48 39 45 e8          	cmp    QWORD PTR [rbp-0x18],rax
  20199d:	73 29                	jae    2019c8 <$get_symbol_label+0x93>
  20199f:	48 c7 c0 00 20 21 00 	mov    rax,0x212000
  2019a6:	48 39 45 e8          	cmp    QWORD PTR [rbp-0x18],rax
  2019aa:	73 1c                	jae    2019c8 <$get_symbol_label+0x93>
  2019ac:	48 c7 c2 60 c8 20 00 	mov    rdx,0x20c860
  2019b3:	8b 45 fc             	mov    eax,DWORD PTR [rbp-0x4]
  2019b6:	48 98                	cdqe   
  2019b8:	48 c1 e0 04          	shl    rax,0x4
  2019bc:	48 01 d0             	add    rax,rdx
  2019bf:	48 83 c0 08          	add    rax,0x8
  2019c3:	48 8b 00             	mov    rax,QWORD PTR [rax]
  2019c6:	eb 10                	jmp    2019d8 <$get_symbol_label+0xa3>
  2019c8:	83 45 fc 01          	add    DWORD PTR [rbp-0x4],0x1
  2019cc:	e9 77 ff ff ff       	jmp    201948 <$get_symbol_label+0x13>
  2019d1:	48 8d 05 ba 87 00 00 	lea    rax,[rip+0x87ba]        # 20a192 <BASE_GRAN+0x16a>
  2019d8:	c9                   	leave  
  2019d9:	c3                   	ret    

00000000002019da <exception_handler>:
  2019da:	55                   	push   rbp
  2019db:	48 89 e5             	mov    rbp,rsp
  2019de:	48 83 ec 20          	sub    rsp,0x20
  2019e2:	48 89 7d e8          	mov    QWORD PTR [rbp-0x18],rdi
  2019e6:	e8 97 2b 00 00       	call   204582 <io::tty::clear()>
  2019eb:	48 8b 45 e8          	mov    rax,QWORD PTR [rbp-0x18]
  2019ef:	48 8b 40 60          	mov    rax,QWORD PTR [rax+0x60]
  2019f3:	48 8d 14 c5 00 00 00 	lea    rdx,[rax*8+0x0]
  2019fa:	00 
  2019fb:	48 8d 05 fe bd 00 00 	lea    rax,[rip+0xbdfe]        # 20d800 <exception_messages>
  201a02:	48 8b 04 02          	mov    rax,QWORD PTR [rdx+rax*1]
  201a06:	48 89 c6             	mov    rsi,rax
  201a09:	48 8d 3d a0 87 00 00 	lea    rdi,[rip+0x87a0]        # 20a1b0 <BASE_GRAN+0x188>
  201a10:	b8 00 00 00 00       	mov    eax,0x0
  201a15:	e8 61 55 00 00       	call   206f7b <printf>
  201a1a:	48 8b 45 e8          	mov    rax,QWORD PTR [rbp-0x18]
  201a1e:	48 8b 40 68          	mov    rax,QWORD PTR [rax+0x68]
  201a22:	48 89 c6             	mov    rsi,rax
  201a25:	48 8d 3d a7 87 00 00 	lea    rdi,[rip+0x87a7]        # 20a1d3 <BASE_GRAN+0x1ab>
  201a2c:	b8 00 00 00 00       	mov    eax,0x0
  201a31:	e8 45 55 00 00       	call   206f7b <printf>
  201a36:	48 8b 45 e8          	mov    rax,QWORD PTR [rbp-0x18]
  201a3a:	48 8b 40 60          	mov    rax,QWORD PTR [rax+0x60]
  201a3e:	48 83 f8 0e          	cmp    rax,0xe
  201a42:	0f 85 d9 00 00 00    	jne    201b21 <exception_handler+0x147>
  201a48:	48 8b 45 e8          	mov    rax,QWORD PTR [rbp-0x18]
  201a4c:	48 8b 40 10          	mov    rax,QWORD PTR [rax+0x10]
  201a50:	48 89 c6             	mov    rsi,rax
  201a53:	48 8d 3d 8e 87 00 00 	lea    rdi,[rip+0x878e]        # 20a1e8 <BASE_GRAN+0x1c0>
  201a5a:	b8 00 00 00 00       	mov    eax,0x0
  201a5f:	e8 17 55 00 00       	call   206f7b <printf>
  201a64:	48 8b 45 e8          	mov    rax,QWORD PTR [rbp-0x18]
  201a68:	48 8b 40 68          	mov    rax,QWORD PTR [rax+0x68]
  201a6c:	83 e0 01             	and    eax,0x1
  201a6f:	48 85 c0             	test   rax,rax
  201a72:	74 09                	je     201a7d <exception_handler+0xa3>
  201a74:	48 8d 05 8d 87 00 00 	lea    rax,[rip+0x878d]        # 20a208 <BASE_GRAN+0x1e0>
  201a7b:	eb 07                	jmp    201a84 <exception_handler+0xaa>
  201a7d:	48 8d 05 8e 87 00 00 	lea    rax,[rip+0x878e]        # 20a212 <BASE_GRAN+0x1ea>
  201a84:	48 89 c6             	mov    rsi,rax
  201a87:	48 8d 3d 90 87 00 00 	lea    rdi,[rip+0x8790]        # 20a21e <BASE_GRAN+0x1f6>
  201a8e:	b8 00 00 00 00       	mov    eax,0x0
  201a93:	e8 e3 54 00 00       	call   206f7b <printf>
  201a98:	48 8b 45 e8          	mov    rax,QWORD PTR [rbp-0x18]
  201a9c:	48 8b 40 68          	mov    rax,QWORD PTR [rax+0x68]
  201aa0:	83 e0 10             	and    eax,0x10
  201aa3:	48 85 c0             	test   rax,rax
  201aa6:	74 11                	je     201ab9 <exception_handler+0xdf>
  201aa8:	48 8d 3d 89 87 00 00 	lea    rdi,[rip+0x8789]        # 20a238 <BASE_GRAN+0x210>
  201aaf:	b8 00 00 00 00       	mov    eax,0x0
  201ab4:	e8 c2 54 00 00       	call   206f7b <printf>
  201ab9:	48 8b 45 e8          	mov    rax,QWORD PTR [rbp-0x18]
  201abd:	48 8b 40 68          	mov    rax,QWORD PTR [rax+0x68]
  201ac1:	83 e0 02             	and    eax,0x2
  201ac4:	48 85 c0             	test   rax,rax
  201ac7:	74 09                	je     201ad2 <exception_handler+0xf8>
  201ac9:	48 8d 05 8d 87 00 00 	lea    rax,[rip+0x878d]        # 20a25d <BASE_GRAN+0x235>
  201ad0:	eb 07                	jmp    201ad9 <exception_handler+0xff>
  201ad2:	48 8d 05 8a 87 00 00 	lea    rax,[rip+0x878a]        # 20a263 <BASE_GRAN+0x23b>
  201ad9:	48 89 c6             	mov    rsi,rax
  201adc:	48 8d 3d 85 87 00 00 	lea    rdi,[rip+0x8785]        # 20a268 <BASE_GRAN+0x240>
  201ae3:	b8 00 00 00 00       	mov    eax,0x0
  201ae8:	e8 8e 54 00 00       	call   206f7b <printf>
  201aed:	48 8b 45 e8          	mov    rax,QWORD PTR [rbp-0x18]
  201af1:	48 8b 40 68          	mov    rax,QWORD PTR [rax+0x68]
  201af5:	83 e0 04             	and    eax,0x4
  201af8:	48 85 c0             	test   rax,rax
  201afb:	74 09                	je     201b06 <exception_handler+0x12c>
  201afd:	48 8d 05 76 87 00 00 	lea    rax,[rip+0x8776]        # 20a27a <BASE_GRAN+0x252>
  201b04:	eb 07                	jmp    201b0d <exception_handler+0x133>
  201b06:	48 8d 05 77 87 00 00 	lea    rax,[rip+0x8777]        # 20a284 <BASE_GRAN+0x25c>
  201b0d:	48 89 c6             	mov    rsi,rax
  201b10:	48 8d 3d 74 87 00 00 	lea    rdi,[rip+0x8774]        # 20a28b <BASE_GRAN+0x263>
  201b17:	b8 00 00 00 00       	mov    eax,0x0
  201b1c:	e8 5a 54 00 00       	call   206f7b <printf>
  201b21:	48 c7 c0 00 00 20 00 	mov    rax,0x200000
  201b28:	48 2d 00 00 20 00    	sub    rax,0x200000
  201b2e:	48 89 45 f0          	mov    QWORD PTR [rbp-0x10],rax
  201b32:	48 8d 3d 67 87 00 00 	lea    rdi,[rip+0x8767]        # 20a2a0 <BASE_GRAN+0x278>
  201b39:	b8 00 00 00 00       	mov    eax,0x0
  201b3e:	e8 38 54 00 00       	call   206f7b <printf>
  201b43:	48 8b 45 e8          	mov    rax,QWORD PTR [rbp-0x18]
  201b47:	48 8b 40 70          	mov    rax,QWORD PTR [rax+0x70]
  201b4b:	48 2b 45 f0          	sub    rax,QWORD PTR [rbp-0x10]
  201b4f:	48 89 c6             	mov    rsi,rax
  201b52:	48 8d 3d 71 87 00 00 	lea    rdi,[rip+0x8771]        # 20a2ca <BASE_GRAN+0x2a2>
  201b59:	b8 00 00 00 00       	mov    eax,0x0
  201b5e:	e8 18 54 00 00       	call   206f7b <printf>
  201b63:	48 8d 3d 6c 87 00 00 	lea    rdi,[rip+0x876c]        # 20a2d6 <BASE_GRAN+0x2ae>
  201b6a:	b8 00 00 00 00       	mov    eax,0x0
  201b6f:	e8 07 54 00 00       	call   206f7b <printf>
  201b74:	48 8b 45 e8          	mov    rax,QWORD PTR [rbp-0x18]
  201b78:	48 8b 40 70          	mov    rax,QWORD PTR [rax+0x70]
  201b7c:	48 2b 45 f0          	sub    rax,QWORD PTR [rbp-0x10]
  201b80:	48 89 c7             	mov    rdi,rax
  201b83:	e8 ad fd ff ff       	call   201935 <$get_symbol_label>
  201b88:	48 89 c6             	mov    rsi,rax
  201b8b:	48 8d 3d 58 87 00 00 	lea    rdi,[rip+0x8758]        # 20a2ea <BASE_GRAN+0x2c2>
  201b92:	b8 00 00 00 00       	mov    eax,0x0
  201b97:	e8 df 53 00 00       	call   206f7b <printf>
  201b9c:	48 8b 45 e8          	mov    rax,QWORD PTR [rbp-0x18]
  201ba0:	48 8b 40 38          	mov    rax,QWORD PTR [rax+0x38]
  201ba4:	48 89 45 f8          	mov    QWORD PTR [rbp-0x8],rax
  201ba8:	48 83 7d f8 00       	cmp    QWORD PTR [rbp-0x8],0x0
  201bad:	74 38                	je     201be7 <exception_handler+0x20d>
  201baf:	48 8b 45 f8          	mov    rax,QWORD PTR [rbp-0x8]
  201bb3:	48 83 c0 08          	add    rax,0x8
  201bb7:	48 8b 00             	mov    rax,QWORD PTR [rax]
  201bba:	48 2b 45 f0          	sub    rax,QWORD PTR [rbp-0x10]
  201bbe:	48 89 c7             	mov    rdi,rax
  201bc1:	e8 6f fd ff ff       	call   201935 <$get_symbol_label>
  201bc6:	48 89 c6             	mov    rsi,rax
  201bc9:	48 8d 3d 1a 87 00 00 	lea    rdi,[rip+0x871a]        # 20a2ea <BASE_GRAN+0x2c2>
  201bd0:	b8 00 00 00 00       	mov    eax,0x0
  201bd5:	e8 a1 53 00 00       	call   206f7b <printf>
  201bda:	48 8b 45 f8          	mov    rax,QWORD PTR [rbp-0x8]
  201bde:	48 8b 00             	mov    rax,QWORD PTR [rax]
  201be1:	48 89 45 f8          	mov    QWORD PTR [rbp-0x8],rax
  201be5:	eb c1                	jmp    201ba8 <exception_handler+0x1ce>
  201be7:	90                   	nop
  201be8:	fa                   	cli    
  201be9:	f4                   	hlt    
  201bea:	e8 4e 26 00 00       	call   20423d <restart_cold>
  201bef:	90                   	nop
  201bf0:	c9                   	leave  
  201bf1:	c3                   	ret    

0000000000201bf2 <isr_handler>:
  201bf2:	55                   	push   rbp
  201bf3:	48 89 e5             	mov    rbp,rsp
  201bf6:	48 83 ec 10          	sub    rsp,0x10
  201bfa:	48 89 7d f8          	mov    QWORD PTR [rbp-0x8],rdi
  201bfe:	48 8b 45 f8          	mov    rax,QWORD PTR [rbp-0x8]
  201c02:	48 89 c7             	mov    rdi,rax
  201c05:	e8 d0 fd ff ff       	call   2019da <exception_handler>
  201c0a:	90                   	nop
  201c0b:	c9                   	leave  
  201c0c:	c3                   	ret    

0000000000201c0d <irq_handler>:
  201c0d:	55                   	push   rbp
  201c0e:	48 89 e5             	mov    rbp,rsp
  201c11:	48 83 ec 10          	sub    rsp,0x10
  201c15:	48 89 7d f8          	mov    QWORD PTR [rbp-0x8],rdi
  201c19:	48 8b 45 f8          	mov    rax,QWORD PTR [rbp-0x8]
  201c1d:	48 8b 40 60          	mov    rax,QWORD PTR [rax+0x60]
  201c21:	48 83 f8 20          	cmp    rax,0x20
  201c25:	75 56                	jne    201c7d <irq_handler+0x70>
  201c27:	48 c7 c0 28 01 21 00 	mov    rax,0x210128
  201c2e:	48 8b 00             	mov    rax,QWORD PTR [rax]
  201c31:	48 8d 50 01          	lea    rdx,[rax+0x1]
  201c35:	48 c7 c0 28 01 21 00 	mov    rax,0x210128
  201c3c:	48 89 10             	mov    QWORD PTR [rax],rdx
  201c3f:	8b 05 67 e4 00 00    	mov    eax,DWORD PTR [rip+0xe467]        # 2100ac <milliseconds>
  201c45:	83 c0 01             	add    eax,0x1
  201c48:	89 05 5e e4 00 00    	mov    DWORD PTR [rip+0xe45e],eax        # 2100ac <milliseconds>
  201c4e:	8b 15 58 e4 00 00    	mov    edx,DWORD PTR [rip+0xe458]        # 2100ac <milliseconds>
  201c54:	48 c7 c0 1c 01 21 00 	mov    rax,0x21011c
  201c5b:	8b 00                	mov    eax,DWORD PTR [rax]
  201c5d:	39 c2                	cmp    edx,eax
  201c5f:	72 1c                	jb     201c7d <irq_handler+0x70>
  201c61:	c7 05 41 e4 00 00 00 	mov    DWORD PTR [rip+0xe441],0x0        # 2100ac <milliseconds>
  201c68:	00 00 00 
  201c6b:	48 8b 05 3e e4 00 00 	mov    rax,QWORD PTR [rip+0xe43e]        # 2100b0 <seconds>
  201c72:	48 83 c0 01          	add    rax,0x1
  201c76:	48 89 05 33 e4 00 00 	mov    QWORD PTR [rip+0xe433],rax        # 2100b0 <seconds>
  201c7d:	48 8b 45 f8          	mov    rax,QWORD PTR [rbp-0x8]
  201c81:	48 8b 40 60          	mov    rax,QWORD PTR [rax+0x60]
  201c85:	48 83 f8 21          	cmp    rax,0x21
  201c89:	75 05                	jne    201c90 <irq_handler+0x83>
  201c8b:	e8 51 62 00 00       	call   207ee1 <kbd_irq_handler>
  201c90:	48 8b 45 f8          	mov    rax,QWORD PTR [rbp-0x8]
  201c94:	48 8b 40 60          	mov    rax,QWORD PTR [rax+0x60]
  201c98:	48 83 f8 24          	cmp    rax,0x24
  201c9c:	75 05                	jne    201ca3 <irq_handler+0x96>
  201c9e:	e8 f5 65 00 00       	call   208298 <io::serial::console::read_character()>
  201ca3:	48 8b 45 f8          	mov    rax,QWORD PTR [rbp-0x8]
  201ca7:	48 8b 40 60          	mov    rax,QWORD PTR [rax+0x60]
  201cab:	48 83 f8 27          	cmp    rax,0x27
  201caf:	76 0f                	jbe    201cc0 <irq_handler+0xb3>
  201cb1:	be 20 00 00 00       	mov    esi,0x20
  201cb6:	bf a0 00 00 00       	mov    edi,0xa0
  201cbb:	e8 54 fc ff ff       	call   201914 <io::outb(unsigned short, unsigned char)>
  201cc0:	be 20 00 00 00       	mov    esi,0x20
  201cc5:	bf 20 00 00 00       	mov    edi,0x20
  201cca:	e8 45 fc ff ff       	call   201914 <io::outb(unsigned short, unsigned char)>
  201ccf:	90                   	nop
  201cd0:	c9                   	leave  
  201cd1:	c3                   	ret    

0000000000201cd2 <idt_set>:
  201cd2:	55                   	push   rbp
  201cd3:	48 89 e5             	mov    rbp,rsp
  201cd6:	48 83 ec 18          	sub    rsp,0x18
  201cda:	48 89 75 f0          	mov    QWORD PTR [rbp-0x10],rsi
  201cde:	89 d0                	mov    eax,edx
  201ce0:	89 ca                	mov    edx,ecx
  201ce2:	89 f9                	mov    ecx,edi
  201ce4:	88 4d fc             	mov    BYTE PTR [rbp-0x4],cl
  201ce7:	66 89 45 f8          	mov    WORD PTR [rbp-0x8],ax
  201ceb:	89 d0                	mov    eax,edx
  201ced:	88 45 ec             	mov    BYTE PTR [rbp-0x14],al
  201cf0:	0f b6 45 fc          	movzx  eax,BYTE PTR [rbp-0x4]
  201cf4:	48 8b 55 f0          	mov    rdx,QWORD PTR [rbp-0x10]
  201cf8:	89 d1                	mov    ecx,edx
  201cfa:	48 98                	cdqe   
  201cfc:	48 c1 e0 04          	shl    rax,0x4
  201d00:	48 89 c2             	mov    rdx,rax
  201d03:	48 8d 05 96 d3 00 00 	lea    rax,[rip+0xd396]        # 20f0a0 <idt_s>
  201d0a:	66 89 0c 02          	mov    WORD PTR [rdx+rax*1],cx
  201d0e:	48 8b 45 f0          	mov    rax,QWORD PTR [rbp-0x10]
  201d12:	48 c1 e8 10          	shr    rax,0x10
  201d16:	48 89 c2             	mov    rdx,rax
  201d19:	0f b6 45 fc          	movzx  eax,BYTE PTR [rbp-0x4]
  201d1d:	89 d1                	mov    ecx,edx
  201d1f:	48 98                	cdqe   
  201d21:	48 c1 e0 04          	shl    rax,0x4
  201d25:	48 89 c2             	mov    rdx,rax
  201d28:	48 8d 05 77 d3 00 00 	lea    rax,[rip+0xd377]        # 20f0a6 <idt_s+0x6>
  201d2f:	66 89 0c 02          	mov    WORD PTR [rdx+rax*1],cx
  201d33:	48 8b 45 f0          	mov    rax,QWORD PTR [rbp-0x10]
  201d37:	48 c1 e8 20          	shr    rax,0x20
  201d3b:	48 89 c2             	mov    rdx,rax
  201d3e:	0f b6 45 fc          	movzx  eax,BYTE PTR [rbp-0x4]
  201d42:	89 d1                	mov    ecx,edx
  201d44:	48 98                	cdqe   
  201d46:	48 c1 e0 04          	shl    rax,0x4
  201d4a:	48 89 c2             	mov    rdx,rax
  201d4d:	48 8d 05 54 d3 00 00 	lea    rax,[rip+0xd354]        # 20f0a8 <idt_s+0x8>
  201d54:	89 0c 02             	mov    DWORD PTR [rdx+rax*1],ecx
  201d57:	0f b6 45 fc          	movzx  eax,BYTE PTR [rbp-0x4]
  201d5b:	48 98                	cdqe   
  201d5d:	48 c1 e0 04          	shl    rax,0x4
  201d61:	48 89 c1             	mov    rcx,rax
  201d64:	48 8d 15 37 d3 00 00 	lea    rdx,[rip+0xd337]        # 20f0a2 <idt_s+0x2>
  201d6b:	0f b7 45 f8          	movzx  eax,WORD PTR [rbp-0x8]
  201d6f:	66 89 04 11          	mov    WORD PTR [rcx+rdx*1],ax
  201d73:	0f b6 45 fc          	movzx  eax,BYTE PTR [rbp-0x4]
  201d77:	48 98                	cdqe   
  201d79:	48 c1 e0 04          	shl    rax,0x4
  201d7d:	48 89 c1             	mov    rcx,rax
  201d80:	48 8d 15 1e d3 00 00 	lea    rdx,[rip+0xd31e]        # 20f0a5 <idt_s+0x5>
  201d87:	0f b6 45 ec          	movzx  eax,BYTE PTR [rbp-0x14]
  201d8b:	88 04 11             	mov    BYTE PTR [rcx+rdx*1],al
  201d8e:	80 7d fc 1f          	cmp    BYTE PTR [rbp-0x4],0x1f
  201d92:	77 1a                	ja     201dae <idt_set+0xdc>
  201d94:	0f b6 45 fc          	movzx  eax,BYTE PTR [rbp-0x4]
  201d98:	48 98                	cdqe   
  201d9a:	48 c1 e0 04          	shl    rax,0x4
  201d9e:	48 89 c2             	mov    rdx,rax
  201da1:	48 8d 05 fc d2 00 00 	lea    rax,[rip+0xd2fc]        # 20f0a4 <idt_s+0x4>
  201da8:	c6 04 02 01          	mov    BYTE PTR [rdx+rax*1],0x1
  201dac:	eb 38                	jmp    201de6 <idt_set+0x114>
  201dae:	80 7d fc 2f          	cmp    BYTE PTR [rbp-0x4],0x2f
  201db2:	77 1a                	ja     201dce <idt_set+0xfc>
  201db4:	0f b6 45 fc          	movzx  eax,BYTE PTR [rbp-0x4]
  201db8:	48 98                	cdqe   
  201dba:	48 c1 e0 04          	shl    rax,0x4
  201dbe:	48 89 c2             	mov    rdx,rax
  201dc1:	48 8d 05 dc d2 00 00 	lea    rax,[rip+0xd2dc]        # 20f0a4 <idt_s+0x4>
  201dc8:	c6 04 02 02          	mov    BYTE PTR [rdx+rax*1],0x2
  201dcc:	eb 18                	jmp    201de6 <idt_set+0x114>
  201dce:	0f b6 45 fc          	movzx  eax,BYTE PTR [rbp-0x4]
  201dd2:	48 98                	cdqe   
  201dd4:	48 c1 e0 04          	shl    rax,0x4
  201dd8:	48 89 c2             	mov    rdx,rax
  201ddb:	48 8d 05 c2 d2 00 00 	lea    rax,[rip+0xd2c2]        # 20f0a4 <idt_s+0x4>
  201de2:	c6 04 02 03          	mov    BYTE PTR [rdx+rax*1],0x3
  201de6:	0f b6 45 fc          	movzx  eax,BYTE PTR [rbp-0x4]
  201dea:	48 98                	cdqe   
  201dec:	48 c1 e0 04          	shl    rax,0x4
  201df0:	48 89 c2             	mov    rdx,rax
  201df3:	48 8d 05 b2 d2 00 00 	lea    rax,[rip+0xd2b2]        # 20f0ac <idt_s+0xc>
  201dfa:	c7 04 02 00 00 00 00 	mov    DWORD PTR [rdx+rax*1],0x0
  201e01:	90                   	nop
  201e02:	c9                   	leave  
  201e03:	c3                   	ret    

0000000000201e04 <load_idt>:
  201e04:	55                   	push   rbp
  201e05:	48 89 e5             	mov    rbp,rsp
  201e08:	66 c7 05 8f e2 00 00 	mov    WORD PTR [rip+0xe28f],0xfff        # 2100a0 <idtPointer>
  201e0f:	ff 0f 
  201e11:	48 8d 05 88 d2 00 00 	lea    rax,[rip+0xd288]        # 20f0a0 <idt_s>
  201e18:	48 89 05 83 e2 00 00 	mov    QWORD PTR [rip+0xe283],rax        # 2100a2 <idtPointer+0x2>
  201e1f:	ba 00 10 00 00       	mov    edx,0x1000
  201e24:	be 00 00 00 00       	mov    esi,0x0
  201e29:	48 8d 3d 70 d2 00 00 	lea    rdi,[rip+0xd270]        # 20f0a0 <idt_s>
  201e30:	e8 55 11 00 00       	call   202f8a <memory::operations::memset(void*, unsigned char, unsigned long)>
  201e35:	48 c7 c0 a4 83 20 00 	mov    rax,0x2083a4
  201e3c:	b9 8e 00 00 00       	mov    ecx,0x8e
  201e41:	ba 08 00 00 00       	mov    edx,0x8
  201e46:	48 89 c6             	mov    rsi,rax
  201e49:	bf 00 00 00 00       	mov    edi,0x0
  201e4e:	e8 7f fe ff ff       	call   201cd2 <idt_set>
  201e53:	48 c7 c0 b2 83 20 00 	mov    rax,0x2083b2
  201e5a:	b9 8e 00 00 00       	mov    ecx,0x8e
  201e5f:	ba 08 00 00 00       	mov    edx,0x8
  201e64:	48 89 c6             	mov    rsi,rax
  201e67:	bf 01 00 00 00       	mov    edi,0x1
  201e6c:	e8 61 fe ff ff       	call   201cd2 <idt_set>
  201e71:	48 c7 c0 b4 83 20 00 	mov    rax,0x2083b4
  201e78:	b9 8e 00 00 00       	mov    ecx,0x8e
  201e7d:	ba 08 00 00 00       	mov    edx,0x8
  201e82:	48 89 c6             	mov    rsi,rax
  201e85:	bf 02 00 00 00       	mov    edi,0x2
  201e8a:	e8 43 fe ff ff       	call   201cd2 <idt_set>
  201e8f:	48 c7 c0 c2 83 20 00 	mov    rax,0x2083c2
  201e96:	b9 8e 00 00 00       	mov    ecx,0x8e
  201e9b:	ba 08 00 00 00       	mov    edx,0x8
  201ea0:	48 89 c6             	mov    rsi,rax
  201ea3:	bf 03 00 00 00       	mov    edi,0x3
  201ea8:	e8 25 fe ff ff       	call   201cd2 <idt_set>
  201ead:	48 c7 c0 d0 83 20 00 	mov    rax,0x2083d0
  201eb4:	b9 8e 00 00 00       	mov    ecx,0x8e
  201eb9:	ba 08 00 00 00       	mov    edx,0x8
  201ebe:	48 89 c6             	mov    rsi,rax
  201ec1:	bf 04 00 00 00       	mov    edi,0x4
  201ec6:	e8 07 fe ff ff       	call   201cd2 <idt_set>
  201ecb:	48 c7 c0 de 83 20 00 	mov    rax,0x2083de
  201ed2:	b9 8e 00 00 00       	mov    ecx,0x8e
  201ed7:	ba 08 00 00 00       	mov    edx,0x8
  201edc:	48 89 c6             	mov    rsi,rax
  201edf:	bf 05 00 00 00       	mov    edi,0x5
  201ee4:	e8 e9 fd ff ff       	call   201cd2 <idt_set>
  201ee9:	48 c7 c0 ec 83 20 00 	mov    rax,0x2083ec
  201ef0:	b9 8e 00 00 00       	mov    ecx,0x8e
  201ef5:	ba 08 00 00 00       	mov    edx,0x8
  201efa:	48 89 c6             	mov    rsi,rax
  201efd:	bf 06 00 00 00       	mov    edi,0x6
  201f02:	e8 cb fd ff ff       	call   201cd2 <idt_set>
  201f07:	48 c7 c0 fa 83 20 00 	mov    rax,0x2083fa
  201f0e:	b9 8e 00 00 00       	mov    ecx,0x8e
  201f13:	ba 08 00 00 00       	mov    edx,0x8
  201f18:	48 89 c6             	mov    rsi,rax
  201f1b:	bf 07 00 00 00       	mov    edi,0x7
  201f20:	e8 ad fd ff ff       	call   201cd2 <idt_set>
  201f25:	48 c7 c0 08 84 20 00 	mov    rax,0x208408
  201f2c:	b9 8e 00 00 00       	mov    ecx,0x8e
  201f31:	ba 08 00 00 00       	mov    edx,0x8
  201f36:	48 89 c6             	mov    rsi,rax
  201f39:	bf 08 00 00 00       	mov    edi,0x8
  201f3e:	e8 8f fd ff ff       	call   201cd2 <idt_set>
  201f43:	48 c7 c0 14 84 20 00 	mov    rax,0x208414
  201f4a:	b9 8e 00 00 00       	mov    ecx,0x8e
  201f4f:	ba 08 00 00 00       	mov    edx,0x8
  201f54:	48 89 c6             	mov    rsi,rax
  201f57:	bf 09 00 00 00       	mov    edi,0x9
  201f5c:	e8 71 fd ff ff       	call   201cd2 <idt_set>
  201f61:	48 c7 c0 22 84 20 00 	mov    rax,0x208422
  201f68:	b9 8e 00 00 00       	mov    ecx,0x8e
  201f6d:	ba 08 00 00 00       	mov    edx,0x8
  201f72:	48 89 c6             	mov    rsi,rax
  201f75:	bf 0a 00 00 00       	mov    edi,0xa
  201f7a:	e8 53 fd ff ff       	call   201cd2 <idt_set>
  201f7f:	48 c7 c0 2e 84 20 00 	mov    rax,0x20842e
  201f86:	b9 8e 00 00 00       	mov    ecx,0x8e
  201f8b:	ba 08 00 00 00       	mov    edx,0x8
  201f90:	48 89 c6             	mov    rsi,rax
  201f93:	bf 0b 00 00 00       	mov    edi,0xb
  201f98:	e8 35 fd ff ff       	call   201cd2 <idt_set>
  201f9d:	48 c7 c0 3a 84 20 00 	mov    rax,0x20843a
  201fa4:	b9 8e 00 00 00       	mov    ecx,0x8e
  201fa9:	ba 08 00 00 00       	mov    edx,0x8
  201fae:	48 89 c6             	mov    rsi,rax
  201fb1:	bf 0c 00 00 00       	mov    edi,0xc
  201fb6:	e8 17 fd ff ff       	call   201cd2 <idt_set>
  201fbb:	48 c7 c0 46 84 20 00 	mov    rax,0x208446
  201fc2:	b9 8e 00 00 00       	mov    ecx,0x8e
  201fc7:	ba 08 00 00 00       	mov    edx,0x8
  201fcc:	48 89 c6             	mov    rsi,rax
  201fcf:	bf 0d 00 00 00       	mov    edi,0xd
  201fd4:	e8 f9 fc ff ff       	call   201cd2 <idt_set>
  201fd9:	48 c7 c0 52 84 20 00 	mov    rax,0x208452
  201fe0:	b9 8e 00 00 00       	mov    ecx,0x8e
  201fe5:	ba 08 00 00 00       	mov    edx,0x8
  201fea:	48 89 c6             	mov    rsi,rax
  201fed:	bf 0e 00 00 00       	mov    edi,0xe
  201ff2:	e8 db fc ff ff       	call   201cd2 <idt_set>
  201ff7:	48 c7 c0 5e 84 20 00 	mov    rax,0x20845e
  201ffe:	b9 8e 00 00 00       	mov    ecx,0x8e
  202003:	ba 08 00 00 00       	mov    edx,0x8
  202008:	48 89 c6             	mov    rsi,rax
  20200b:	bf 0f 00 00 00       	mov    edi,0xf
  202010:	e8 bd fc ff ff       	call   201cd2 <idt_set>
  202015:	48 c7 c0 6c 84 20 00 	mov    rax,0x20846c
  20201c:	b9 8e 00 00 00       	mov    ecx,0x8e
  202021:	ba 08 00 00 00       	mov    edx,0x8
  202026:	48 89 c6             	mov    rsi,rax
  202029:	bf 10 00 00 00       	mov    edi,0x10
  20202e:	e8 9f fc ff ff       	call   201cd2 <idt_set>
  202033:	48 c7 c0 7a 84 20 00 	mov    rax,0x20847a
  20203a:	b9 8e 00 00 00       	mov    ecx,0x8e
  20203f:	ba 08 00 00 00       	mov    edx,0x8
  202044:	48 89 c6             	mov    rsi,rax
  202047:	bf 11 00 00 00       	mov    edi,0x11
  20204c:	e8 81 fc ff ff       	call   201cd2 <idt_set>
  202051:	48 c7 c0 88 84 20 00 	mov    rax,0x208488
  202058:	b9 8e 00 00 00       	mov    ecx,0x8e
  20205d:	ba 08 00 00 00       	mov    edx,0x8
  202062:	48 89 c6             	mov    rsi,rax
  202065:	bf 12 00 00 00       	mov    edi,0x12
  20206a:	e8 63 fc ff ff       	call   201cd2 <idt_set>
  20206f:	48 c7 c0 96 84 20 00 	mov    rax,0x208496
  202076:	b9 8e 00 00 00       	mov    ecx,0x8e
  20207b:	ba 08 00 00 00       	mov    edx,0x8
  202080:	48 89 c6             	mov    rsi,rax
  202083:	bf 13 00 00 00       	mov    edi,0x13
  202088:	e8 45 fc ff ff       	call   201cd2 <idt_set>
  20208d:	48 c7 c0 a4 84 20 00 	mov    rax,0x2084a4
  202094:	b9 8e 00 00 00       	mov    ecx,0x8e
  202099:	ba 08 00 00 00       	mov    edx,0x8
  20209e:	48 89 c6             	mov    rsi,rax
  2020a1:	bf 14 00 00 00       	mov    edi,0x14
  2020a6:	e8 27 fc ff ff       	call   201cd2 <idt_set>
  2020ab:	48 c7 c0 b2 84 20 00 	mov    rax,0x2084b2
  2020b2:	b9 8e 00 00 00       	mov    ecx,0x8e
  2020b7:	ba 08 00 00 00       	mov    edx,0x8
  2020bc:	48 89 c6             	mov    rsi,rax
  2020bf:	bf 15 00 00 00       	mov    edi,0x15
  2020c4:	e8 09 fc ff ff       	call   201cd2 <idt_set>
  2020c9:	48 c7 c0 c0 84 20 00 	mov    rax,0x2084c0
  2020d0:	b9 8e 00 00 00       	mov    ecx,0x8e
  2020d5:	ba 08 00 00 00       	mov    edx,0x8
  2020da:	48 89 c6             	mov    rsi,rax
  2020dd:	bf 16 00 00 00       	mov    edi,0x16
  2020e2:	e8 eb fb ff ff       	call   201cd2 <idt_set>
  2020e7:	48 c7 c0 ce 84 20 00 	mov    rax,0x2084ce
  2020ee:	b9 8e 00 00 00       	mov    ecx,0x8e
  2020f3:	ba 08 00 00 00       	mov    edx,0x8
  2020f8:	48 89 c6             	mov    rsi,rax
  2020fb:	bf 17 00 00 00       	mov    edi,0x17
  202100:	e8 cd fb ff ff       	call   201cd2 <idt_set>
  202105:	48 c7 c0 dc 84 20 00 	mov    rax,0x2084dc
  20210c:	b9 8e 00 00 00       	mov    ecx,0x8e
  202111:	ba 08 00 00 00       	mov    edx,0x8
  202116:	48 89 c6             	mov    rsi,rax
  202119:	bf 18 00 00 00       	mov    edi,0x18
  20211e:	e8 af fb ff ff       	call   201cd2 <idt_set>
  202123:	48 c7 c0 ea 84 20 00 	mov    rax,0x2084ea
  20212a:	b9 8e 00 00 00       	mov    ecx,0x8e
  20212f:	ba 08 00 00 00       	mov    edx,0x8
  202134:	48 89 c6             	mov    rsi,rax
  202137:	bf 19 00 00 00       	mov    edi,0x19
  20213c:	e8 91 fb ff ff       	call   201cd2 <idt_set>
  202141:	48 c7 c0 f8 84 20 00 	mov    rax,0x2084f8
  202148:	b9 8e 00 00 00       	mov    ecx,0x8e
  20214d:	ba 08 00 00 00       	mov    edx,0x8
  202152:	48 89 c6             	mov    rsi,rax
  202155:	bf 1a 00 00 00       	mov    edi,0x1a
  20215a:	e8 73 fb ff ff       	call   201cd2 <idt_set>
  20215f:	48 c7 c0 06 85 20 00 	mov    rax,0x208506
  202166:	b9 8e 00 00 00       	mov    ecx,0x8e
  20216b:	ba 08 00 00 00       	mov    edx,0x8
  202170:	48 89 c6             	mov    rsi,rax
  202173:	bf 1b 00 00 00       	mov    edi,0x1b
  202178:	e8 55 fb ff ff       	call   201cd2 <idt_set>
  20217d:	48 c7 c0 14 85 20 00 	mov    rax,0x208514
  202184:	b9 8e 00 00 00       	mov    ecx,0x8e
  202189:	ba 08 00 00 00       	mov    edx,0x8
  20218e:	48 89 c6             	mov    rsi,rax
  202191:	bf 1c 00 00 00       	mov    edi,0x1c
  202196:	e8 37 fb ff ff       	call   201cd2 <idt_set>
  20219b:	48 c7 c0 22 85 20 00 	mov    rax,0x208522
  2021a2:	b9 8e 00 00 00       	mov    ecx,0x8e
  2021a7:	ba 08 00 00 00       	mov    edx,0x8
  2021ac:	48 89 c6             	mov    rsi,rax
  2021af:	bf 1d 00 00 00       	mov    edi,0x1d
  2021b4:	e8 19 fb ff ff       	call   201cd2 <idt_set>
  2021b9:	48 c7 c0 30 85 20 00 	mov    rax,0x208530
  2021c0:	b9 8e 00 00 00       	mov    ecx,0x8e
  2021c5:	ba 08 00 00 00       	mov    edx,0x8
  2021ca:	48 89 c6             	mov    rsi,rax
  2021cd:	bf 1e 00 00 00       	mov    edi,0x1e
  2021d2:	e8 fb fa ff ff       	call   201cd2 <idt_set>
  2021d7:	48 c7 c0 3e 85 20 00 	mov    rax,0x20853e
  2021de:	b9 8e 00 00 00       	mov    ecx,0x8e
  2021e3:	ba 08 00 00 00       	mov    edx,0x8
  2021e8:	48 89 c6             	mov    rsi,rax
  2021eb:	bf 1f 00 00 00       	mov    edi,0x1f
  2021f0:	e8 dd fa ff ff       	call   201cd2 <idt_set>
  2021f5:	48 c7 c0 4c 85 20 00 	mov    rax,0x20854c
  2021fc:	b9 8e 00 00 00       	mov    ecx,0x8e
  202201:	ba 08 00 00 00       	mov    edx,0x8
  202206:	48 89 c6             	mov    rsi,rax
  202209:	bf 20 00 00 00       	mov    edi,0x20
  20220e:	e8 bf fa ff ff       	call   201cd2 <idt_set>
  202213:	48 c7 c0 5a 85 20 00 	mov    rax,0x20855a
  20221a:	b9 8e 00 00 00       	mov    ecx,0x8e
  20221f:	ba 08 00 00 00       	mov    edx,0x8
  202224:	48 89 c6             	mov    rsi,rax
  202227:	bf 21 00 00 00       	mov    edi,0x21
  20222c:	e8 a1 fa ff ff       	call   201cd2 <idt_set>
  202231:	48 c7 c0 68 85 20 00 	mov    rax,0x208568
  202238:	b9 8e 00 00 00       	mov    ecx,0x8e
  20223d:	ba 08 00 00 00       	mov    edx,0x8
  202242:	48 89 c6             	mov    rsi,rax
  202245:	bf 22 00 00 00       	mov    edi,0x22
  20224a:	e8 83 fa ff ff       	call   201cd2 <idt_set>
  20224f:	48 c7 c0 76 85 20 00 	mov    rax,0x208576
  202256:	b9 8e 00 00 00       	mov    ecx,0x8e
  20225b:	ba 08 00 00 00       	mov    edx,0x8
  202260:	48 89 c6             	mov    rsi,rax
  202263:	bf 23 00 00 00       	mov    edi,0x23
  202268:	e8 65 fa ff ff       	call   201cd2 <idt_set>
  20226d:	48 c7 c0 84 85 20 00 	mov    rax,0x208584
  202274:	b9 8e 00 00 00       	mov    ecx,0x8e
  202279:	ba 08 00 00 00       	mov    edx,0x8
  20227e:	48 89 c6             	mov    rsi,rax
  202281:	bf 24 00 00 00       	mov    edi,0x24
  202286:	e8 47 fa ff ff       	call   201cd2 <idt_set>
  20228b:	48 c7 c0 92 85 20 00 	mov    rax,0x208592
  202292:	b9 8e 00 00 00       	mov    ecx,0x8e
  202297:	ba 08 00 00 00       	mov    edx,0x8
  20229c:	48 89 c6             	mov    rsi,rax
  20229f:	bf 25 00 00 00       	mov    edi,0x25
  2022a4:	e8 29 fa ff ff       	call   201cd2 <idt_set>
  2022a9:	48 c7 c0 a0 85 20 00 	mov    rax,0x2085a0
  2022b0:	b9 8e 00 00 00       	mov    ecx,0x8e
  2022b5:	ba 08 00 00 00       	mov    edx,0x8
  2022ba:	48 89 c6             	mov    rsi,rax
  2022bd:	bf 26 00 00 00       	mov    edi,0x26
  2022c2:	e8 0b fa ff ff       	call   201cd2 <idt_set>
  2022c7:	48 c7 c0 ae 85 20 00 	mov    rax,0x2085ae
  2022ce:	b9 8e 00 00 00       	mov    ecx,0x8e
  2022d3:	ba 08 00 00 00       	mov    edx,0x8
  2022d8:	48 89 c6             	mov    rsi,rax
  2022db:	bf 27 00 00 00       	mov    edi,0x27
  2022e0:	e8 ed f9 ff ff       	call   201cd2 <idt_set>
  2022e5:	48 c7 c0 bc 85 20 00 	mov    rax,0x2085bc
  2022ec:	b9 8e 00 00 00       	mov    ecx,0x8e
  2022f1:	ba 08 00 00 00       	mov    edx,0x8
  2022f6:	48 89 c6             	mov    rsi,rax
  2022f9:	bf 28 00 00 00       	mov    edi,0x28
  2022fe:	e8 cf f9 ff ff       	call   201cd2 <idt_set>
  202303:	48 c7 c0 ca 85 20 00 	mov    rax,0x2085ca
  20230a:	b9 8e 00 00 00       	mov    ecx,0x8e
  20230f:	ba 08 00 00 00       	mov    edx,0x8
  202314:	48 89 c6             	mov    rsi,rax
  202317:	bf 29 00 00 00       	mov    edi,0x29
  20231c:	e8 b1 f9 ff ff       	call   201cd2 <idt_set>
  202321:	48 c7 c0 d8 85 20 00 	mov    rax,0x2085d8
  202328:	b9 8e 00 00 00       	mov    ecx,0x8e
  20232d:	ba 08 00 00 00       	mov    edx,0x8
  202332:	48 89 c6             	mov    rsi,rax
  202335:	bf 2a 00 00 00       	mov    edi,0x2a
  20233a:	e8 93 f9 ff ff       	call   201cd2 <idt_set>
  20233f:	48 c7 c0 e6 85 20 00 	mov    rax,0x2085e6
  202346:	b9 8e 00 00 00       	mov    ecx,0x8e
  20234b:	ba 08 00 00 00       	mov    edx,0x8
  202350:	48 89 c6             	mov    rsi,rax
  202353:	bf 2b 00 00 00       	mov    edi,0x2b
  202358:	e8 75 f9 ff ff       	call   201cd2 <idt_set>
  20235d:	48 c7 c0 f4 85 20 00 	mov    rax,0x2085f4
  202364:	b9 8e 00 00 00       	mov    ecx,0x8e
  202369:	ba 08 00 00 00       	mov    edx,0x8
  20236e:	48 89 c6             	mov    rsi,rax
  202371:	bf 2c 00 00 00       	mov    edi,0x2c
  202376:	e8 57 f9 ff ff       	call   201cd2 <idt_set>
  20237b:	48 c7 c0 02 86 20 00 	mov    rax,0x208602
  202382:	b9 8e 00 00 00       	mov    ecx,0x8e
  202387:	ba 08 00 00 00       	mov    edx,0x8
  20238c:	48 89 c6             	mov    rsi,rax
  20238f:	bf 2d 00 00 00       	mov    edi,0x2d
  202394:	e8 39 f9 ff ff       	call   201cd2 <idt_set>
  202399:	48 c7 c0 10 86 20 00 	mov    rax,0x208610
  2023a0:	b9 8e 00 00 00       	mov    ecx,0x8e
  2023a5:	ba 08 00 00 00       	mov    edx,0x8
  2023aa:	48 89 c6             	mov    rsi,rax
  2023ad:	bf 2e 00 00 00       	mov    edi,0x2e
  2023b2:	e8 1b f9 ff ff       	call   201cd2 <idt_set>
  2023b7:	48 c7 c0 1e 86 20 00 	mov    rax,0x20861e
  2023be:	b9 8e 00 00 00       	mov    ecx,0x8e
  2023c3:	ba 08 00 00 00       	mov    edx,0x8
  2023c8:	48 89 c6             	mov    rsi,rax
  2023cb:	bf 2f 00 00 00       	mov    edi,0x2f
  2023d0:	e8 fd f8 ff ff       	call   201cd2 <idt_set>
  2023d5:	48 8d 05 c4 dc 00 00 	lea    rax,[rip+0xdcc4]        # 2100a0 <idtPointer>
  2023dc:	48 89 c7             	mov    rdi,rax
  2023df:	e8 bc 5f 00 00       	call   2083a0 <lidt>
  2023e4:	90                   	nop
  2023e5:	5d                   	pop    rbp
  2023e6:	c3                   	ret    
  2023e7:	90                   	nop

00000000002023e8 <memory::heap::initialize_heap(void*, unsigned long)>:
  2023e8:	55                   	push   rbp
  2023e9:	48 89 e5             	mov    rbp,rsp
  2023ec:	48 83 ec 20          	sub    rsp,0x20
  2023f0:	48 89 7d e8          	mov    QWORD PTR [rbp-0x18],rdi
  2023f4:	48 89 75 e0          	mov    QWORD PTR [rbp-0x20],rsi
  2023f8:	48 8b 45 e8          	mov    rax,QWORD PTR [rbp-0x18]
  2023fc:	48 89 05 b5 dc 00 00 	mov    QWORD PTR [rip+0xdcb5],rax        # 2100b8 <heap_start>
  202403:	48 8b 05 ae dc 00 00 	mov    rax,QWORD PTR [rip+0xdcae]        # 2100b8 <heap_start>
  20240a:	48 89 c2             	mov    rdx,rax
  20240d:	48 8b 45 e0          	mov    rax,QWORD PTR [rbp-0x20]
  202411:	48 01 d0             	add    rax,rdx
  202414:	48 89 05 a5 dc 00 00 	mov    QWORD PTR [rip+0xdca5],rax        # 2100c0 <heap_end>
  20241b:	48 8b 45 e8          	mov    rax,QWORD PTR [rbp-0x18]
  20241f:	48 89 45 f8          	mov    QWORD PTR [rbp-0x8],rax
  202423:	48 8b 45 e0          	mov    rax,QWORD PTR [rbp-0x20]
  202427:	48 8d 50 e0          	lea    rdx,[rax-0x20]
  20242b:	48 8b 45 f8          	mov    rax,QWORD PTR [rbp-0x8]
  20242f:	48 89 10             	mov    QWORD PTR [rax],rdx
  202432:	48 8b 45 f8          	mov    rax,QWORD PTR [rbp-0x8]
  202436:	48 c7 40 10 00 00 00 	mov    QWORD PTR [rax+0x10],0x0
  20243d:	00 
  20243e:	48 8b 45 f8          	mov    rax,QWORD PTR [rbp-0x8]
  202442:	48 c7 40 08 00 00 00 	mov    QWORD PTR [rax+0x8],0x0
  202449:	00 
  20244a:	48 8b 45 f8          	mov    rax,QWORD PTR [rbp-0x8]
  20244e:	c6 40 18 01          	mov    BYTE PTR [rax+0x18],0x1
  202452:	90                   	nop
  202453:	c9                   	leave  
  202454:	c3                   	ret    

0000000000202455 <memory::heap::malloc(unsigned long)>:
  202455:	55                   	push   rbp
  202456:	48 89 e5             	mov    rbp,rsp
  202459:	48 83 ec 20          	sub    rsp,0x20
  20245d:	48 89 7d e8          	mov    QWORD PTR [rbp-0x18],rdi
  202461:	48 83 7d e8 00       	cmp    QWORD PTR [rbp-0x18],0x0
  202466:	75 0a                	jne    202472 <memory::heap::malloc(unsigned long)+0x1d>
  202468:	b8 00 00 00 00       	mov    eax,0x0
  20246d:	e9 9c 00 00 00       	jmp    20250e <memory::heap::malloc(unsigned long)+0xb9>
  202472:	48 8b 45 e8          	mov    rax,QWORD PTR [rbp-0x18]
  202476:	83 e0 0f             	and    eax,0xf
  202479:	48 85 c0             	test   rax,rax
  20247c:	74 0f                	je     20248d <memory::heap::malloc(unsigned long)+0x38>
  20247e:	48 8b 45 e8          	mov    rax,QWORD PTR [rbp-0x18]
  202482:	83 e0 0f             	and    eax,0xf
  202485:	48 83 c0 10          	add    rax,0x10
  202489:	48 89 45 e8          	mov    QWORD PTR [rbp-0x18],rax
  20248d:	48 8b 05 24 dc 00 00 	mov    rax,QWORD PTR [rip+0xdc24]        # 2100b8 <heap_start>
  202494:	48 89 45 f8          	mov    QWORD PTR [rbp-0x8],rax
  202498:	48 8b 45 f8          	mov    rax,QWORD PTR [rbp-0x8]
  20249c:	0f b6 40 18          	movzx  eax,BYTE PTR [rax+0x18]
  2024a0:	84 c0                	test   al,al
  2024a2:	74 49                	je     2024ed <memory::heap::malloc(unsigned long)+0x98>
  2024a4:	48 8b 45 f8          	mov    rax,QWORD PTR [rbp-0x8]
  2024a8:	48 8b 00             	mov    rax,QWORD PTR [rax]
  2024ab:	48 39 45 e8          	cmp    QWORD PTR [rbp-0x18],rax
  2024af:	73 21                	jae    2024d2 <memory::heap::malloc(unsigned long)+0x7d>
  2024b1:	48 8b 55 e8          	mov    rdx,QWORD PTR [rbp-0x18]
  2024b5:	48 8b 45 f8          	mov    rax,QWORD PTR [rbp-0x8]
  2024b9:	48 89 d6             	mov    rsi,rdx
  2024bc:	48 89 c7             	mov    rdi,rax
  2024bf:	e8 be 00 00 00       	call   202582 <memory::heap::heap_segment_header::split(unsigned long)>
  2024c4:	48 8b 45 f8          	mov    rax,QWORD PTR [rbp-0x8]
  2024c8:	c6 40 18 00          	mov    BYTE PTR [rax+0x18],0x0
  2024cc:	48 8b 45 f8          	mov    rax,QWORD PTR [rbp-0x8]
  2024d0:	eb 3c                	jmp    20250e <memory::heap::malloc(unsigned long)+0xb9>
  2024d2:	48 8b 45 f8          	mov    rax,QWORD PTR [rbp-0x8]
  2024d6:	48 8b 00             	mov    rax,QWORD PTR [rax]
  2024d9:	48 39 45 e8          	cmp    QWORD PTR [rbp-0x18],rax
  2024dd:	75 0e                	jne    2024ed <memory::heap::malloc(unsigned long)+0x98>
  2024df:	48 8b 45 f8          	mov    rax,QWORD PTR [rbp-0x8]
  2024e3:	c6 40 18 00          	mov    BYTE PTR [rax+0x18],0x0
  2024e7:	48 8b 45 f8          	mov    rax,QWORD PTR [rbp-0x8]
  2024eb:	eb 21                	jmp    20250e <memory::heap::malloc(unsigned long)+0xb9>
  2024ed:	48 8b 45 f8          	mov    rax,QWORD PTR [rbp-0x8]
  2024f1:	48 8b 40 08          	mov    rax,QWORD PTR [rax+0x8]
  2024f5:	48 85 c0             	test   rax,rax
  2024f8:	74 0e                	je     202508 <memory::heap::malloc(unsigned long)+0xb3>
  2024fa:	48 8b 45 f8          	mov    rax,QWORD PTR [rbp-0x8]
  2024fe:	48 8b 40 08          	mov    rax,QWORD PTR [rax+0x8]
  202502:	48 89 45 f8          	mov    QWORD PTR [rbp-0x8],rax
  202506:	eb 90                	jmp    202498 <memory::heap::malloc(unsigned long)+0x43>
  202508:	90                   	nop
  202509:	b8 00 00 00 00       	mov    eax,0x0
  20250e:	c9                   	leave  
  20250f:	c3                   	ret    

0000000000202510 <memory::heap::free(void*)>:
  202510:	55                   	push   rbp
  202511:	48 89 e5             	mov    rbp,rsp
  202514:	48 83 ec 20          	sub    rsp,0x20
  202518:	48 89 7d e8          	mov    QWORD PTR [rbp-0x18],rdi
  20251c:	48 8b 45 e8          	mov    rax,QWORD PTR [rbp-0x18]
  202520:	48 89 45 f8          	mov    QWORD PTR [rbp-0x8],rax
  202524:	48 8b 45 f8          	mov    rax,QWORD PTR [rbp-0x8]
  202528:	c6 40 18 01          	mov    BYTE PTR [rax+0x18],0x1
  20252c:	48 8b 45 f8          	mov    rax,QWORD PTR [rbp-0x8]
  202530:	48 8b 40 08          	mov    rax,QWORD PTR [rax+0x8]
  202534:	48 85 c0             	test   rax,rax
  202537:	74 1c                	je     202555 <memory::heap::free(void*)+0x45>
  202539:	48 8b 45 f8          	mov    rax,QWORD PTR [rbp-0x8]
  20253d:	48 8b 40 08          	mov    rax,QWORD PTR [rax+0x8]
  202541:	0f b6 40 18          	movzx  eax,BYTE PTR [rax+0x18]
  202545:	84 c0                	test   al,al
  202547:	74 0c                	je     202555 <memory::heap::free(void*)+0x45>
  202549:	48 8b 45 f8          	mov    rax,QWORD PTR [rbp-0x8]
  20254d:	48 89 c7             	mov    rdi,rax
  202550:	e8 e5 00 00 00       	call   20263a <memory::heap::heap_segment_header::combine_forward()>
  202555:	48 8b 45 f8          	mov    rax,QWORD PTR [rbp-0x8]
  202559:	48 8b 40 10          	mov    rax,QWORD PTR [rax+0x10]
  20255d:	48 85 c0             	test   rax,rax
  202560:	74 1c                	je     20257e <memory::heap::free(void*)+0x6e>
  202562:	48 8b 45 f8          	mov    rax,QWORD PTR [rbp-0x8]
  202566:	48 8b 40 10          	mov    rax,QWORD PTR [rax+0x10]
  20256a:	0f b6 40 18          	movzx  eax,BYTE PTR [rax+0x18]
  20256e:	84 c0                	test   al,al
  202570:	74 0c                	je     20257e <memory::heap::free(void*)+0x6e>
  202572:	48 8b 45 f8          	mov    rax,QWORD PTR [rbp-0x8]
  202576:	48 89 c7             	mov    rdi,rax
  202579:	e8 4a 01 00 00       	call   2026c8 <memory::heap::heap_segment_header::combine_backward()>
  20257e:	90                   	nop
  20257f:	c9                   	leave  
  202580:	c3                   	ret    
  202581:	90                   	nop

0000000000202582 <memory::heap::heap_segment_header::split(unsigned long)>:
  202582:	55                   	push   rbp
  202583:	48 89 e5             	mov    rbp,rsp
  202586:	48 83 ec 20          	sub    rsp,0x20
  20258a:	48 89 7d e8          	mov    QWORD PTR [rbp-0x18],rdi
  20258e:	48 89 75 e0          	mov    QWORD PTR [rbp-0x20],rsi
  202592:	48 83 7d e0 0f       	cmp    QWORD PTR [rbp-0x20],0xf
  202597:	77 0a                	ja     2025a3 <memory::heap::heap_segment_header::split(unsigned long)+0x21>
  202599:	b8 00 00 00 00       	mov    eax,0x0
  20259e:	e9 95 00 00 00       	jmp    202638 <memory::heap::heap_segment_header::split(unsigned long)+0xb6>
  2025a3:	48 8b 45 e8          	mov    rax,QWORD PTR [rbp-0x18]
  2025a7:	48 8b 00             	mov    rax,QWORD PTR [rax]
  2025aa:	48 2b 45 e0          	sub    rax,QWORD PTR [rbp-0x20]
  2025ae:	48 83 e8 40          	sub    rax,0x40
  2025b2:	48 89 45 f8          	mov    QWORD PTR [rbp-0x8],rax
  2025b6:	48 83 7d f8 0f       	cmp    QWORD PTR [rbp-0x8],0xf
  2025bb:	77 07                	ja     2025c4 <memory::heap::heap_segment_header::split(unsigned long)+0x42>
  2025bd:	b8 00 00 00 00       	mov    eax,0x0
  2025c2:	eb 74                	jmp    202638 <memory::heap::heap_segment_header::split(unsigned long)+0xb6>
  2025c4:	48 8b 55 e8          	mov    rdx,QWORD PTR [rbp-0x18]
  2025c8:	48 8b 45 e0          	mov    rax,QWORD PTR [rbp-0x20]
  2025cc:	48 01 d0             	add    rax,rdx
  2025cf:	48 83 c0 20          	add    rax,0x20
  2025d3:	48 89 45 f0          	mov    QWORD PTR [rbp-0x10],rax
  2025d7:	48 8b 45 e8          	mov    rax,QWORD PTR [rbp-0x18]
  2025db:	48 8b 40 08          	mov    rax,QWORD PTR [rax+0x8]
  2025df:	48 8b 55 f0          	mov    rdx,QWORD PTR [rbp-0x10]
  2025e3:	48 89 50 10          	mov    QWORD PTR [rax+0x10],rdx
  2025e7:	48 8b 45 e8          	mov    rax,QWORD PTR [rbp-0x18]
  2025eb:	48 8b 50 08          	mov    rdx,QWORD PTR [rax+0x8]
  2025ef:	48 8b 45 f0          	mov    rax,QWORD PTR [rbp-0x10]
  2025f3:	48 89 50 08          	mov    QWORD PTR [rax+0x8],rdx
  2025f7:	48 8b 45 e8          	mov    rax,QWORD PTR [rbp-0x18]
  2025fb:	48 8b 55 f0          	mov    rdx,QWORD PTR [rbp-0x10]
  2025ff:	48 89 50 08          	mov    QWORD PTR [rax+0x8],rdx
  202603:	48 8b 45 f0          	mov    rax,QWORD PTR [rbp-0x10]
  202607:	48 8b 55 e8          	mov    rdx,QWORD PTR [rbp-0x18]
  20260b:	48 89 50 10          	mov    QWORD PTR [rax+0x10],rdx
  20260f:	48 8b 45 f0          	mov    rax,QWORD PTR [rbp-0x10]
  202613:	48 8b 55 f8          	mov    rdx,QWORD PTR [rbp-0x8]
  202617:	48 89 10             	mov    QWORD PTR [rax],rdx
  20261a:	48 8b 45 e8          	mov    rax,QWORD PTR [rbp-0x18]
  20261e:	0f b6 50 18          	movzx  edx,BYTE PTR [rax+0x18]
  202622:	48 8b 45 f0          	mov    rax,QWORD PTR [rbp-0x10]
  202626:	88 50 18             	mov    BYTE PTR [rax+0x18],dl
  202629:	48 8b 45 e8          	mov    rax,QWORD PTR [rbp-0x18]
  20262d:	48 8b 55 e0          	mov    rdx,QWORD PTR [rbp-0x20]
  202631:	48 89 10             	mov    QWORD PTR [rax],rdx
  202634:	48 8b 45 f0          	mov    rax,QWORD PTR [rbp-0x10]
  202638:	c9                   	leave  
  202639:	c3                   	ret    

000000000020263a <memory::heap::heap_segment_header::combine_forward()>:
  20263a:	55                   	push   rbp
  20263b:	48 89 e5             	mov    rbp,rsp
  20263e:	48 83 ec 08          	sub    rsp,0x8
  202642:	48 89 7d f8          	mov    QWORD PTR [rbp-0x8],rdi
  202646:	48 8b 45 f8          	mov    rax,QWORD PTR [rbp-0x8]
  20264a:	48 8b 40 08          	mov    rax,QWORD PTR [rax+0x8]
  20264e:	48 85 c0             	test   rax,rax
  202651:	74 6e                	je     2026c1 <memory::heap::heap_segment_header::combine_forward()+0x87>
  202653:	48 8b 45 f8          	mov    rax,QWORD PTR [rbp-0x8]
  202657:	48 8b 40 08          	mov    rax,QWORD PTR [rax+0x8]
  20265b:	0f b6 40 18          	movzx  eax,BYTE PTR [rax+0x18]
  20265f:	83 f0 01             	xor    eax,0x1
  202662:	84 c0                	test   al,al
  202664:	75 5e                	jne    2026c4 <memory::heap::heap_segment_header::combine_forward()+0x8a>
  202666:	48 8b 45 f8          	mov    rax,QWORD PTR [rbp-0x8]
  20266a:	48 8b 40 08          	mov    rax,QWORD PTR [rax+0x8]
  20266e:	48 8b 40 08          	mov    rax,QWORD PTR [rax+0x8]
  202672:	48 85 c0             	test   rax,rax
  202675:	74 14                	je     20268b <memory::heap::heap_segment_header::combine_forward()+0x51>
  202677:	48 8b 45 f8          	mov    rax,QWORD PTR [rbp-0x8]
  20267b:	48 8b 40 08          	mov    rax,QWORD PTR [rax+0x8]
  20267f:	48 8b 40 08          	mov    rax,QWORD PTR [rax+0x8]
  202683:	48 8b 55 f8          	mov    rdx,QWORD PTR [rbp-0x8]
  202687:	48 89 50 10          	mov    QWORD PTR [rax+0x10],rdx
  20268b:	48 8b 45 f8          	mov    rax,QWORD PTR [rbp-0x8]
  20268f:	48 8b 10             	mov    rdx,QWORD PTR [rax]
  202692:	48 8b 45 f8          	mov    rax,QWORD PTR [rbp-0x8]
  202696:	48 8b 40 08          	mov    rax,QWORD PTR [rax+0x8]
  20269a:	48 8b 00             	mov    rax,QWORD PTR [rax]
  20269d:	48 01 d0             	add    rax,rdx
  2026a0:	48 8d 50 20          	lea    rdx,[rax+0x20]
  2026a4:	48 8b 45 f8          	mov    rax,QWORD PTR [rbp-0x8]
  2026a8:	48 89 10             	mov    QWORD PTR [rax],rdx
  2026ab:	48 8b 45 f8          	mov    rax,QWORD PTR [rbp-0x8]
  2026af:	48 8b 40 08          	mov    rax,QWORD PTR [rax+0x8]
  2026b3:	48 8b 50 08          	mov    rdx,QWORD PTR [rax+0x8]
  2026b7:	48 8b 45 f8          	mov    rax,QWORD PTR [rbp-0x8]
  2026bb:	48 89 50 08          	mov    QWORD PTR [rax+0x8],rdx
  2026bf:	eb 04                	jmp    2026c5 <memory::heap::heap_segment_header::combine_forward()+0x8b>
  2026c1:	90                   	nop
  2026c2:	eb 01                	jmp    2026c5 <memory::heap::heap_segment_header::combine_forward()+0x8b>
  2026c4:	90                   	nop
  2026c5:	c9                   	leave  
  2026c6:	c3                   	ret    
  2026c7:	90                   	nop

00000000002026c8 <memory::heap::heap_segment_header::combine_backward()>:
  2026c8:	55                   	push   rbp
  2026c9:	48 89 e5             	mov    rbp,rsp
  2026cc:	48 83 ec 08          	sub    rsp,0x8
  2026d0:	48 89 7d f8          	mov    QWORD PTR [rbp-0x8],rdi
  2026d4:	48 8b 45 f8          	mov    rax,QWORD PTR [rbp-0x8]
  2026d8:	48 8b 40 10          	mov    rax,QWORD PTR [rax+0x10]
  2026dc:	48 85 c0             	test   rax,rax
  2026df:	74 10                	je     2026f1 <memory::heap::heap_segment_header::combine_backward()+0x29>
  2026e1:	48 8b 45 f8          	mov    rax,QWORD PTR [rbp-0x8]
  2026e5:	48 8b 40 10          	mov    rax,QWORD PTR [rax+0x10]
  2026e9:	48 89 c7             	mov    rdi,rax
  2026ec:	e8 49 ff ff ff       	call   20263a <memory::heap::heap_segment_header::combine_forward()>
  2026f1:	90                   	nop
  2026f2:	c9                   	leave  
  2026f3:	c3                   	ret    

00000000002026f4 <memory_types(unsigned short)>:
  2026f4:	55                   	push   rbp
  2026f5:	48 89 e5             	mov    rbp,rsp
  2026f8:	48 83 ec 08          	sub    rsp,0x8
  2026fc:	89 f8                	mov    eax,edi
  2026fe:	66 89 45 fc          	mov    WORD PTR [rbp-0x4],ax
  202702:	0f b7 45 fc          	movzx  eax,WORD PTR [rbp-0x4]
  202706:	83 f8 0a             	cmp    eax,0xa
  202709:	7f 2b                	jg     202736 <memory_types(unsigned short)+0x42>
  20270b:	85 c0                	test   eax,eax
  20270d:	7e 6f                	jle    20277e <memory_types(unsigned short)+0x8a>
  20270f:	83 f8 0a             	cmp    eax,0xa
  202712:	77 6a                	ja     20277e <memory_types(unsigned short)+0x8a>
  202714:	89 c0                	mov    eax,eax
  202716:	48 8d 14 85 00 00 00 	lea    rdx,[rax*4+0x0]
  20271d:	00 
  20271e:	48 8d 05 6f 7c 00 00 	lea    rax,[rip+0x7c6f]        # 20a394 <BASE_GRAN+0x36c>
  202725:	8b 04 02             	mov    eax,DWORD PTR [rdx+rax*1]
  202728:	48 98                	cdqe   
  20272a:	48 8d 15 63 7c 00 00 	lea    rdx,[rip+0x7c63]        # 20a394 <BASE_GRAN+0x36c>
  202731:	48 01 d0             	add    rax,rdx
  202734:	ff e0                	jmp    rax
  202736:	3d 00 10 00 00       	cmp    eax,0x1000
  20273b:	74 38                	je     202775 <memory_types(unsigned short)+0x81>
  20273d:	eb 3f                	jmp    20277e <memory_types(unsigned short)+0x8a>
  20273f:	48 8d 05 b2 7b 00 00 	lea    rax,[rip+0x7bb2]        # 20a2f8 <BASE_GRAN+0x2d0>
  202746:	eb 3d                	jmp    202785 <memory_types(unsigned short)+0x91>
  202748:	48 8d 05 bd 7b 00 00 	lea    rax,[rip+0x7bbd]        # 20a30c <BASE_GRAN+0x2e4>
  20274f:	eb 34                	jmp    202785 <memory_types(unsigned short)+0x91>
  202751:	48 8d 05 c4 7b 00 00 	lea    rax,[rip+0x7bc4]        # 20a31c <BASE_GRAN+0x2f4>
  202758:	eb 2b                	jmp    202785 <memory_types(unsigned short)+0x91>
  20275a:	48 8d 05 d3 7b 00 00 	lea    rax,[rip+0x7bd3]        # 20a334 <BASE_GRAN+0x30c>
  202761:	eb 22                	jmp    202785 <memory_types(unsigned short)+0x91>
  202763:	48 8d 05 da 7b 00 00 	lea    rax,[rip+0x7bda]        # 20a344 <BASE_GRAN+0x31c>
  20276a:	eb 19                	jmp    202785 <memory_types(unsigned short)+0x91>
  20276c:	48 8d 05 df 7b 00 00 	lea    rax,[rip+0x7bdf]        # 20a352 <BASE_GRAN+0x32a>
  202773:	eb 10                	jmp    202785 <memory_types(unsigned short)+0x91>
  202775:	48 8d 05 e4 7b 00 00 	lea    rax,[rip+0x7be4]        # 20a360 <BASE_GRAN+0x338>
  20277c:	eb 07                	jmp    202785 <memory_types(unsigned short)+0x91>
  20277e:	48 8d 05 f9 7b 00 00 	lea    rax,[rip+0x7bf9]        # 20a37e <BASE_GRAN+0x356>
  202785:	c9                   	leave  
  202786:	c3                   	ret    

0000000000202787 <init_bitmap(unsigned long, void*)>:
  202787:	55                   	push   rbp
  202788:	48 89 e5             	mov    rbp,rsp
  20278b:	48 83 ec 20          	sub    rsp,0x20
  20278f:	48 89 7d e8          	mov    QWORD PTR [rbp-0x18],rdi
  202793:	48 89 75 e0          	mov    QWORD PTR [rbp-0x20],rsi
  202797:	48 8b 45 e8          	mov    rax,QWORD PTR [rbp-0x18]
  20279b:	48 89 05 4e d9 00 00 	mov    QWORD PTR [rip+0xd94e],rax        # 2100f0 <page_bitmap_map>
  2027a2:	48 8b 45 e0          	mov    rax,QWORD PTR [rbp-0x20]
  2027a6:	48 89 05 4b d9 00 00 	mov    QWORD PTR [rip+0xd94b],rax        # 2100f8 <page_bitmap_map+0x8>
  2027ad:	48 c7 45 f8 00 00 00 	mov    QWORD PTR [rbp-0x8],0x0
  2027b4:	00 
  2027b5:	48 8b 45 f8          	mov    rax,QWORD PTR [rbp-0x8]
  2027b9:	48 3b 45 e8          	cmp    rax,QWORD PTR [rbp-0x18]
  2027bd:	73 18                	jae    2027d7 <init_bitmap(unsigned long, void*)+0x50>
  2027bf:	48 8b 15 32 d9 00 00 	mov    rdx,QWORD PTR [rip+0xd932]        # 2100f8 <page_bitmap_map+0x8>
  2027c6:	48 8b 45 f8          	mov    rax,QWORD PTR [rbp-0x8]
  2027ca:	48 01 d0             	add    rax,rdx
  2027cd:	c6 00 00             	mov    BYTE PTR [rax],0x0
  2027d0:	48 83 45 f8 01       	add    QWORD PTR [rbp-0x8],0x1
  2027d5:	eb de                	jmp    2027b5 <init_bitmap(unsigned long, void*)+0x2e>
  2027d7:	90                   	nop
  2027d8:	c9                   	leave  
  2027d9:	c3                   	ret    

00000000002027da <memory::pmm::get_total_memory_size(stivale_memory_map*, unsigned long, unsigned long)>:
  2027da:	55                   	push   rbp
  2027db:	48 89 e5             	mov    rbp,rsp
  2027de:	48 83 ec 38          	sub    rsp,0x38
  2027e2:	48 89 7d d8          	mov    QWORD PTR [rbp-0x28],rdi
  2027e6:	48 89 75 d0          	mov    QWORD PTR [rbp-0x30],rsi
  2027ea:	48 89 55 c8          	mov    QWORD PTR [rbp-0x38],rdx
  2027ee:	48 8b 05 13 d9 00 00 	mov    rax,QWORD PTR [rip+0xd913]        # 210108 <memory::pmm::get_total_memory_size(stivale_memory_map*, unsigned long, unsigned long)::memory_size_bytes>
  2027f5:	48 85 c0             	test   rax,rax
  2027f8:	74 0c                	je     202806 <memory::pmm::get_total_memory_size(stivale_memory_map*, unsigned long, unsigned long)+0x2c>
  2027fa:	48 8b 05 07 d9 00 00 	mov    rax,QWORD PTR [rip+0xd907]        # 210108 <memory::pmm::get_total_memory_size(stivale_memory_map*, unsigned long, unsigned long)::memory_size_bytes>
  202801:	e9 91 00 00 00       	jmp    202897 <memory::pmm::get_total_memory_size(stivale_memory_map*, unsigned long, unsigned long)+0xbd>
  202806:	48 8b 45 d0          	mov    rax,QWORD PTR [rbp-0x30]
  20280a:	ba 00 00 00 00       	mov    edx,0x0
  20280f:	48 f7 75 c8          	div    QWORD PTR [rbp-0x38]
  202813:	48 89 45 f0          	mov    QWORD PTR [rbp-0x10],rax
  202817:	48 c7 45 f8 00 00 00 	mov    QWORD PTR [rbp-0x8],0x0
  20281e:	00 
  20281f:	48 8b 45 f8          	mov    rax,QWORD PTR [rbp-0x8]
  202823:	48 3b 45 f0          	cmp    rax,QWORD PTR [rbp-0x10]
  202827:	73 43                	jae    20286c <memory::pmm::get_total_memory_size(stivale_memory_map*, unsigned long, unsigned long)+0x92>
  202829:	48 8b 45 d8          	mov    rax,QWORD PTR [rbp-0x28]
  20282d:	48 8b 10             	mov    rdx,QWORD PTR [rax]
  202830:	48 8b 45 f8          	mov    rax,QWORD PTR [rbp-0x8]
  202834:	48 0f af 45 c8       	imul   rax,QWORD PTR [rbp-0x38]
  202839:	48 01 d0             	add    rax,rdx
  20283c:	48 89 45 e8          	mov    QWORD PTR [rbp-0x18],rax
  202840:	48 8b 45 e8          	mov    rax,QWORD PTR [rbp-0x18]
  202844:	8b 40 10             	mov    eax,DWORD PTR [rax+0x10]
  202847:	83 f8 01             	cmp    eax,0x1
  20284a:	75 19                	jne    202865 <memory::pmm::get_total_memory_size(stivale_memory_map*, unsigned long, unsigned long)+0x8b>
  20284c:	48 8b 45 e8          	mov    rax,QWORD PTR [rbp-0x18]
  202850:	48 8b 10             	mov    rdx,QWORD PTR [rax]
  202853:	48 8b 45 e8          	mov    rax,QWORD PTR [rbp-0x18]
  202857:	48 8b 40 08          	mov    rax,QWORD PTR [rax+0x8]
  20285b:	48 01 d0             	add    rax,rdx
  20285e:	48 89 05 a3 d8 00 00 	mov    QWORD PTR [rip+0xd8a3],rax        # 210108 <memory::pmm::get_total_memory_size(stivale_memory_map*, unsigned long, unsigned long)::memory_size_bytes>
  202865:	48 83 45 f8 01       	add    QWORD PTR [rbp-0x8],0x1
  20286a:	eb b3                	jmp    20281f <memory::pmm::get_total_memory_size(stivale_memory_map*, unsigned long, unsigned long)+0x45>
  20286c:	48 8b 05 95 d8 00 00 	mov    rax,QWORD PTR [rip+0xd895]        # 210108 <memory::pmm::get_total_memory_size(stivale_memory_map*, unsigned long, unsigned long)::memory_size_bytes>
  202873:	48 c1 e8 14          	shr    rax,0x14
  202877:	48 89 05 8a d8 00 00 	mov    QWORD PTR [rip+0xd88a],rax        # 210108 <memory::pmm::get_total_memory_size(stivale_memory_map*, unsigned long, unsigned long)::memory_size_bytes>
  20287e:	48 8b 05 83 d8 00 00 	mov    rax,QWORD PTR [rip+0xd883]        # 210108 <memory::pmm::get_total_memory_size(stivale_memory_map*, unsigned long, unsigned long)::memory_size_bytes>
  202885:	48 c1 e0 14          	shl    rax,0x14
  202889:	48 89 05 78 d8 00 00 	mov    QWORD PTR [rip+0xd878],rax        # 210108 <memory::pmm::get_total_memory_size(stivale_memory_map*, unsigned long, unsigned long)::memory_size_bytes>
  202890:	48 8b 05 71 d8 00 00 	mov    rax,QWORD PTR [rip+0xd871]        # 210108 <memory::pmm::get_total_memory_size(stivale_memory_map*, unsigned long, unsigned long)::memory_size_bytes>
  202897:	c9                   	leave  
  202898:	c3                   	ret    

0000000000202899 <memory::pmm::initialize(stivale_memory_map*, unsigned long, unsigned long)>:
  202899:	55                   	push   rbp
  20289a:	48 89 e5             	mov    rbp,rsp
  20289d:	48 83 ec 70          	sub    rsp,0x70
  2028a1:	48 89 7d a8          	mov    QWORD PTR [rbp-0x58],rdi
  2028a5:	48 89 75 a0          	mov    QWORD PTR [rbp-0x60],rsi
  2028a9:	48 89 55 98          	mov    QWORD PTR [rbp-0x68],rdx
  2028ad:	0f b6 05 4c d8 00 00 	movzx  eax,BYTE PTR [rip+0xd84c]        # 210100 <initialized>
  2028b4:	84 c0                	test   al,al
  2028b6:	0f 85 85 02 00 00    	jne    202b41 <memory::pmm::initialize(stivale_memory_map*, unsigned long, unsigned long)+0x2a8>
  2028bc:	c6 05 3d d8 00 00 01 	mov    BYTE PTR [rip+0xd83d],0x1        # 210100 <initialized>
  2028c3:	48 8b 45 a0          	mov    rax,QWORD PTR [rbp-0x60]
  2028c7:	ba 00 00 00 00       	mov    edx,0x0
  2028cc:	48 f7 75 98          	div    QWORD PTR [rbp-0x68]
  2028d0:	48 89 45 d8          	mov    QWORD PTR [rbp-0x28],rax
  2028d4:	48 c7 45 f8 00 00 00 	mov    QWORD PTR [rbp-0x8],0x0
  2028db:	00 
  2028dc:	48 c7 45 f0 00 00 00 	mov    QWORD PTR [rbp-0x10],0x0
  2028e3:	00 
  2028e4:	48 c7 45 e8 00 00 00 	mov    QWORD PTR [rbp-0x18],0x0
  2028eb:	00 
  2028ec:	48 8b 45 e8          	mov    rax,QWORD PTR [rbp-0x18]
  2028f0:	48 3b 45 d8          	cmp    rax,QWORD PTR [rbp-0x28]
  2028f4:	0f 83 e4 00 00 00    	jae    2029de <memory::pmm::initialize(stivale_memory_map*, unsigned long, unsigned long)+0x145>
  2028fa:	48 8b 45 a8          	mov    rax,QWORD PTR [rbp-0x58]
  2028fe:	48 8b 10             	mov    rdx,QWORD PTR [rax]
  202901:	48 8b 45 e8          	mov    rax,QWORD PTR [rbp-0x18]
  202905:	48 0f af 45 98       	imul   rax,QWORD PTR [rbp-0x68]
  20290a:	48 01 d0             	add    rax,rdx
  20290d:	48 89 45 d0          	mov    QWORD PTR [rbp-0x30],rax
  202911:	48 8b 45 d0          	mov    rax,QWORD PTR [rbp-0x30]
  202915:	8b 40 10             	mov    eax,DWORD PTR [rax+0x10]
  202918:	83 f8 01             	cmp    eax,0x1
  20291b:	75 31                	jne    20294e <memory::pmm::initialize(stivale_memory_map*, unsigned long, unsigned long)+0xb5>
  20291d:	48 8b 45 d0          	mov    rax,QWORD PTR [rbp-0x30]
  202921:	48 8b 40 08          	mov    rax,QWORD PTR [rax+0x8]
  202925:	48 25 00 f0 ff ff    	and    rax,0xfffffffffffff000
  20292b:	48 39 45 f0          	cmp    QWORD PTR [rbp-0x10],rax
  20292f:	73 1d                	jae    20294e <memory::pmm::initialize(stivale_memory_map*, unsigned long, unsigned long)+0xb5>
  202931:	48 8b 45 d0          	mov    rax,QWORD PTR [rbp-0x30]
  202935:	48 8b 00             	mov    rax,QWORD PTR [rax]
  202938:	48 89 45 f8          	mov    QWORD PTR [rbp-0x8],rax
  20293c:	48 8b 45 d0          	mov    rax,QWORD PTR [rbp-0x30]
  202940:	48 8b 40 08          	mov    rax,QWORD PTR [rax+0x8]
  202944:	48 25 00 f0 ff ff    	and    rax,0xfffffffffffff000
  20294a:	48 89 45 f0          	mov    QWORD PTR [rbp-0x10],rax
  20294e:	48 8d 3d 6b 7a 00 00 	lea    rdi,[rip+0x7a6b]        # 20a3c0 <BASE_GRAN+0x398>
  202955:	e8 83 58 00 00       	call   2081dd <serial_msg>
  20295a:	48 8b 45 d0          	mov    rax,QWORD PTR [rbp-0x30]
  20295e:	48 8b 00             	mov    rax,QWORD PTR [rax]
  202961:	be 10 00 00 00       	mov    esi,0x10
  202966:	48 89 c7             	mov    rdi,rax
  202969:	e8 0b 11 00 00       	call   203a79 <util::itoa(long, int)>
  20296e:	48 89 c7             	mov    rdi,rax
  202971:	e8 67 58 00 00       	call   2081dd <serial_msg>
  202976:	48 8d 3d 48 7a 00 00 	lea    rdi,[rip+0x7a48]        # 20a3c5 <BASE_GRAN+0x39d>
  20297d:	e8 5b 58 00 00       	call   2081dd <serial_msg>
  202982:	48 8b 45 d0          	mov    rax,QWORD PTR [rbp-0x30]
  202986:	8b 40 10             	mov    eax,DWORD PTR [rax+0x10]
  202989:	0f b7 c0             	movzx  eax,ax
  20298c:	89 c7                	mov    edi,eax
  20298e:	e8 61 fd ff ff       	call   2026f4 <memory_types(unsigned short)>
  202993:	48 89 c7             	mov    rdi,rax
  202996:	e8 42 58 00 00       	call   2081dd <serial_msg>
  20299b:	48 8d 3d 26 7a 00 00 	lea    rdi,[rip+0x7a26]        # 20a3c8 <BASE_GRAN+0x3a0>
  2029a2:	e8 36 58 00 00       	call   2081dd <serial_msg>
  2029a7:	48 8b 45 d0          	mov    rax,QWORD PTR [rbp-0x30]
  2029ab:	48 8b 40 08          	mov    rax,QWORD PTR [rax+0x8]
  2029af:	48 c1 e8 0c          	shr    rax,0xc
  2029b3:	be 0a 00 00 00       	mov    esi,0xa
  2029b8:	48 89 c7             	mov    rdi,rax
  2029bb:	e8 b9 10 00 00       	call   203a79 <util::itoa(long, int)>
  2029c0:	48 89 c7             	mov    rdi,rax
  2029c3:	e8 15 58 00 00       	call   2081dd <serial_msg>
  2029c8:	48 8d 3d 00 7a 00 00 	lea    rdi,[rip+0x7a00]        # 20a3cf <BASE_GRAN+0x3a7>
  2029cf:	e8 09 58 00 00       	call   2081dd <serial_msg>
  2029d4:	48 83 45 e8 01       	add    QWORD PTR [rbp-0x18],0x1
  2029d9:	e9 0e ff ff ff       	jmp    2028ec <memory::pmm::initialize(stivale_memory_map*, unsigned long, unsigned long)+0x53>
  2029de:	48 8b 55 98          	mov    rdx,QWORD PTR [rbp-0x68]
  2029e2:	48 8b 4d a0          	mov    rcx,QWORD PTR [rbp-0x60]
  2029e6:	48 8b 45 a8          	mov    rax,QWORD PTR [rbp-0x58]
  2029ea:	48 89 ce             	mov    rsi,rcx
  2029ed:	48 89 c7             	mov    rdi,rax
  2029f0:	e8 e5 fd ff ff       	call   2027da <memory::pmm::get_total_memory_size(stivale_memory_map*, unsigned long, unsigned long)>
  2029f5:	48 89 45 c8          	mov    QWORD PTR [rbp-0x38],rax
  2029f9:	48 8b 45 c8          	mov    rax,QWORD PTR [rbp-0x38]
  2029fd:	48 89 05 dc d6 00 00 	mov    QWORD PTR [rip+0xd6dc],rax        # 2100e0 <memory::pmm::total_memory_size>
  202a04:	48 8b 45 c8          	mov    rax,QWORD PTR [rbp-0x38]
  202a08:	48 89 05 c1 d6 00 00 	mov    QWORD PTR [rip+0xd6c1],rax        # 2100d0 <memory::pmm::free_memory_size>
  202a0f:	48 8b 45 c8          	mov    rax,QWORD PTR [rbp-0x38]
  202a13:	48 c1 e8 0f          	shr    rax,0xf
  202a17:	48 83 c0 01          	add    rax,0x1
  202a1b:	48 89 45 c0          	mov    QWORD PTR [rbp-0x40],rax
  202a1f:	48 8d 3d b1 79 00 00 	lea    rdi,[rip+0x79b1]        # 20a3d7 <BASE_GRAN+0x3af>
  202a26:	e8 b2 57 00 00       	call   2081dd <serial_msg>
  202a2b:	48 8b 45 c8          	mov    rax,QWORD PTR [rbp-0x38]
  202a2f:	48 c1 e8 14          	shr    rax,0x14
  202a33:	be 0a 00 00 00       	mov    esi,0xa
  202a38:	48 89 c7             	mov    rdi,rax
  202a3b:	e8 39 10 00 00       	call   203a79 <util::itoa(long, int)>
  202a40:	48 89 c7             	mov    rdi,rax
  202a43:	e8 95 57 00 00       	call   2081dd <serial_msg>
  202a48:	48 8d 3d 9c 79 00 00 	lea    rdi,[rip+0x799c]        # 20a3eb <BASE_GRAN+0x3c3>
  202a4f:	e8 89 57 00 00       	call   2081dd <serial_msg>
  202a54:	48 8b 45 c0          	mov    rax,QWORD PTR [rbp-0x40]
  202a58:	be 0a 00 00 00       	mov    esi,0xa
  202a5d:	48 89 c7             	mov    rdi,rax
  202a60:	e8 14 10 00 00       	call   203a79 <util::itoa(long, int)>
  202a65:	48 89 c7             	mov    rdi,rax
  202a68:	e8 70 57 00 00       	call   2081dd <serial_msg>
  202a6d:	48 8d 3d 8a 79 00 00 	lea    rdi,[rip+0x798a]        # 20a3fe <BASE_GRAN+0x3d6>
  202a74:	e8 64 57 00 00       	call   2081dd <serial_msg>
  202a79:	48 8b 55 f8          	mov    rdx,QWORD PTR [rbp-0x8]
  202a7d:	48 8b 45 c0          	mov    rax,QWORD PTR [rbp-0x40]
  202a81:	48 89 d6             	mov    rsi,rdx
  202a84:	48 89 c7             	mov    rdi,rax
  202a87:	e8 fb fc ff ff       	call   202787 <init_bitmap(unsigned long, void*)>
  202a8c:	48 c7 45 e0 00 00 00 	mov    QWORD PTR [rbp-0x20],0x0
  202a93:	00 
  202a94:	48 8b 45 e0          	mov    rax,QWORD PTR [rbp-0x20]
  202a98:	48 3b 45 d8          	cmp    rax,QWORD PTR [rbp-0x28]
  202a9c:	73 55                	jae    202af3 <memory::pmm::initialize(stivale_memory_map*, unsigned long, unsigned long)+0x25a>
  202a9e:	48 8b 45 a8          	mov    rax,QWORD PTR [rbp-0x58]
  202aa2:	48 8b 10             	mov    rdx,QWORD PTR [rax]
  202aa5:	48 8b 45 e0          	mov    rax,QWORD PTR [rbp-0x20]
  202aa9:	48 0f af 45 98       	imul   rax,QWORD PTR [rbp-0x68]
  202aae:	48 01 d0             	add    rax,rdx
  202ab1:	48 89 45 b8          	mov    QWORD PTR [rbp-0x48],rax
  202ab5:	48 8b 45 b8          	mov    rax,QWORD PTR [rbp-0x48]
  202ab9:	8b 40 10             	mov    eax,DWORD PTR [rax+0x10]
  202abc:	83 f8 01             	cmp    eax,0x1
  202abf:	74 2b                	je     202aec <memory::pmm::initialize(stivale_memory_map*, unsigned long, unsigned long)+0x253>
  202ac1:	48 8b 45 b8          	mov    rax,QWORD PTR [rbp-0x48]
  202ac5:	48 8b 00             	mov    rax,QWORD PTR [rax]
  202ac8:	48 39 45 c8          	cmp    QWORD PTR [rbp-0x38],rax
  202acc:	76 1e                	jbe    202aec <memory::pmm::initialize(stivale_memory_map*, unsigned long, unsigned long)+0x253>
  202ace:	48 8b 45 b8          	mov    rax,QWORD PTR [rbp-0x48]
  202ad2:	48 8b 40 08          	mov    rax,QWORD PTR [rax+0x8]
  202ad6:	48 c1 e8 0c          	shr    rax,0xc
  202ada:	48 8b 55 b8          	mov    rdx,QWORD PTR [rbp-0x48]
  202ade:	48 8b 12             	mov    rdx,QWORD PTR [rdx]
  202ae1:	48 89 c6             	mov    rsi,rax
  202ae4:	48 89 d7             	mov    rdi,rdx
  202ae7:	e8 97 01 00 00       	call   202c83 <reserve_pages>
  202aec:	48 83 45 e0 01       	add    QWORD PTR [rbp-0x20],0x1
  202af1:	eb a1                	jmp    202a94 <memory::pmm::initialize(stivale_memory_map*, unsigned long, unsigned long)+0x1fb>
  202af3:	48 8b 05 f6 d5 00 00 	mov    rax,QWORD PTR [rip+0xd5f6]        # 2100f0 <page_bitmap_map>
  202afa:	48 c1 e8 0c          	shr    rax,0xc
  202afe:	48 8d 50 01          	lea    rdx,[rax+0x1]
  202b02:	48 8b 05 ef d5 00 00 	mov    rax,QWORD PTR [rip+0xd5ef]        # 2100f8 <page_bitmap_map+0x8>
  202b09:	48 89 d6             	mov    rsi,rdx
  202b0c:	48 89 c7             	mov    rdi,rax
  202b0f:	e8 ef 03 00 00       	call   202f03 <lock_pages>
  202b14:	be 00 01 00 00       	mov    esi,0x100
  202b19:	bf 00 00 00 00       	mov    edi,0x0
  202b1e:	e8 60 01 00 00       	call   202c83 <reserve_pages>
  202b23:	48 c7 c0 00 e0 20 00 	mov    rax,0x20e000
  202b2a:	48 8b 00             	mov    rax,QWORD PTR [rax]
  202b2d:	48 89 c6             	mov    rsi,rax
  202b30:	48 c7 c0 00 00 20 00 	mov    rax,0x200000
  202b37:	48 89 c7             	mov    rdi,rax
  202b3a:	e8 44 01 00 00       	call   202c83 <reserve_pages>
  202b3f:	eb 01                	jmp    202b42 <memory::pmm::initialize(stivale_memory_map*, unsigned long, unsigned long)+0x2a9>
  202b41:	90                   	nop
  202b42:	c9                   	leave  
  202b43:	c3                   	ret    

0000000000202b44 <unreserve_page(void*)>:
  202b44:	55                   	push   rbp
  202b45:	48 89 e5             	mov    rbp,rsp
  202b48:	48 83 ec 20          	sub    rsp,0x20
  202b4c:	48 89 7d e8          	mov    QWORD PTR [rbp-0x18],rdi
  202b50:	48 8b 45 e8          	mov    rax,QWORD PTR [rbp-0x18]
  202b54:	48 c1 e8 0c          	shr    rax,0xc
  202b58:	48 89 45 f8          	mov    QWORD PTR [rbp-0x8],rax
  202b5c:	48 8b 45 f8          	mov    rax,QWORD PTR [rbp-0x8]
  202b60:	48 89 c6             	mov    rsi,rax
  202b63:	48 8d 3d 86 d5 00 00 	lea    rdi,[rip+0xd586]        # 2100f0 <page_bitmap_map>
  202b6a:	e8 f3 0d 00 00       	call   203962 <util::bitmap::operator[](unsigned long)>
  202b6f:	0f b6 c0             	movzx  eax,al
  202b72:	85 c0                	test   eax,eax
  202b74:	0f 94 c0             	sete   al
  202b77:	84 c0                	test   al,al
  202b79:	75 42                	jne    202bbd <unreserve_page(void*)+0x79>
  202b7b:	48 8b 45 f8          	mov    rax,QWORD PTR [rbp-0x8]
  202b7f:	ba 00 00 00 00       	mov    edx,0x0
  202b84:	48 89 c6             	mov    rsi,rax
  202b87:	48 8d 3d 62 d5 00 00 	lea    rdi,[rip+0xd562]        # 2100f0 <page_bitmap_map>
  202b8e:	e8 49 0e 00 00       	call   2039dc <util::bitmap::set(unsigned long, bool)>
  202b93:	48 8b 05 36 d5 00 00 	mov    rax,QWORD PTR [rip+0xd536]        # 2100d0 <memory::pmm::free_memory_size>
  202b9a:	48 05 00 10 00 00    	add    rax,0x1000
  202ba0:	48 89 05 29 d5 00 00 	mov    QWORD PTR [rip+0xd529],rax        # 2100d0 <memory::pmm::free_memory_size>
  202ba7:	48 8b 05 3a d5 00 00 	mov    rax,QWORD PTR [rip+0xd53a]        # 2100e8 <memory::pmm::reserved_memory_size>
  202bae:	48 2d 00 10 00 00    	sub    rax,0x1000
  202bb4:	48 89 05 2d d5 00 00 	mov    QWORD PTR [rip+0xd52d],rax        # 2100e8 <memory::pmm::reserved_memory_size>
  202bbb:	eb 01                	jmp    202bbe <unreserve_page(void*)+0x7a>
  202bbd:	90                   	nop
  202bbe:	c9                   	leave  
  202bbf:	c3                   	ret    

0000000000202bc0 <unreserve_pages(void*, unsigned long)>:
  202bc0:	55                   	push   rbp
  202bc1:	48 89 e5             	mov    rbp,rsp
  202bc4:	48 83 ec 20          	sub    rsp,0x20
  202bc8:	48 89 7d e8          	mov    QWORD PTR [rbp-0x18],rdi
  202bcc:	48 89 75 e0          	mov    QWORD PTR [rbp-0x20],rsi
  202bd0:	48 c7 45 f8 00 00 00 	mov    QWORD PTR [rbp-0x8],0x0
  202bd7:	00 
  202bd8:	48 8b 45 f8          	mov    rax,QWORD PTR [rbp-0x8]
  202bdc:	48 3b 45 e0          	cmp    rax,QWORD PTR [rbp-0x20]
  202be0:	73 21                	jae    202c03 <unreserve_pages(void*, unsigned long)+0x43>
  202be2:	48 8b 45 f8          	mov    rax,QWORD PTR [rbp-0x8]
  202be6:	48 c1 e0 0c          	shl    rax,0xc
  202bea:	48 89 c2             	mov    rdx,rax
  202bed:	48 8b 45 e8          	mov    rax,QWORD PTR [rbp-0x18]
  202bf1:	48 01 d0             	add    rax,rdx
  202bf4:	48 89 c7             	mov    rdi,rax
  202bf7:	e8 48 ff ff ff       	call   202b44 <unreserve_page(void*)>
  202bfc:	48 83 45 f8 01       	add    QWORD PTR [rbp-0x8],0x1
  202c01:	eb d5                	jmp    202bd8 <unreserve_pages(void*, unsigned long)+0x18>
  202c03:	90                   	nop
  202c04:	c9                   	leave  
  202c05:	c3                   	ret    

0000000000202c06 <reserve_page>:
  202c06:	55                   	push   rbp
  202c07:	48 89 e5             	mov    rbp,rsp
  202c0a:	48 83 ec 20          	sub    rsp,0x20
  202c0e:	48 89 7d e8          	mov    QWORD PTR [rbp-0x18],rdi
  202c12:	48 8b 45 e8          	mov    rax,QWORD PTR [rbp-0x18]
  202c16:	48 c1 e8 0c          	shr    rax,0xc
  202c1a:	48 89 45 f8          	mov    QWORD PTR [rbp-0x8],rax
  202c1e:	48 8b 45 f8          	mov    rax,QWORD PTR [rbp-0x8]
  202c22:	48 89 c6             	mov    rsi,rax
  202c25:	48 8d 3d c4 d4 00 00 	lea    rdi,[rip+0xd4c4]        # 2100f0 <page_bitmap_map>
  202c2c:	e8 31 0d 00 00       	call   203962 <util::bitmap::operator[](unsigned long)>
  202c31:	0f b6 c0             	movzx  eax,al
  202c34:	83 f8 01             	cmp    eax,0x1
  202c37:	0f 94 c0             	sete   al
  202c3a:	84 c0                	test   al,al
  202c3c:	75 42                	jne    202c80 <reserve_page+0x7a>
  202c3e:	48 8b 45 f8          	mov    rax,QWORD PTR [rbp-0x8]
  202c42:	ba 01 00 00 00       	mov    edx,0x1
  202c47:	48 89 c6             	mov    rsi,rax
  202c4a:	48 8d 3d 9f d4 00 00 	lea    rdi,[rip+0xd49f]        # 2100f0 <page_bitmap_map>
  202c51:	e8 86 0d 00 00       	call   2039dc <util::bitmap::set(unsigned long, bool)>
  202c56:	48 8b 05 73 d4 00 00 	mov    rax,QWORD PTR [rip+0xd473]        # 2100d0 <memory::pmm::free_memory_size>
  202c5d:	48 2d 00 10 00 00    	sub    rax,0x1000
  202c63:	48 89 05 66 d4 00 00 	mov    QWORD PTR [rip+0xd466],rax        # 2100d0 <memory::pmm::free_memory_size>
  202c6a:	48 8b 05 77 d4 00 00 	mov    rax,QWORD PTR [rip+0xd477]        # 2100e8 <memory::pmm::reserved_memory_size>
  202c71:	48 05 00 10 00 00    	add    rax,0x1000
  202c77:	48 89 05 6a d4 00 00 	mov    QWORD PTR [rip+0xd46a],rax        # 2100e8 <memory::pmm::reserved_memory_size>
  202c7e:	eb 01                	jmp    202c81 <reserve_page+0x7b>
  202c80:	90                   	nop
  202c81:	c9                   	leave  
  202c82:	c3                   	ret    

0000000000202c83 <reserve_pages>:
  202c83:	55                   	push   rbp
  202c84:	48 89 e5             	mov    rbp,rsp
  202c87:	48 83 ec 20          	sub    rsp,0x20
  202c8b:	48 89 7d e8          	mov    QWORD PTR [rbp-0x18],rdi
  202c8f:	48 89 75 e0          	mov    QWORD PTR [rbp-0x20],rsi
  202c93:	48 c7 45 f8 00 00 00 	mov    QWORD PTR [rbp-0x8],0x0
  202c9a:	00 
  202c9b:	48 8b 45 f8          	mov    rax,QWORD PTR [rbp-0x8]
  202c9f:	48 3b 45 e0          	cmp    rax,QWORD PTR [rbp-0x20]
  202ca3:	73 21                	jae    202cc6 <reserve_pages+0x43>
  202ca5:	48 8b 45 f8          	mov    rax,QWORD PTR [rbp-0x8]
  202ca9:	48 c1 e0 0c          	shl    rax,0xc
  202cad:	48 89 c2             	mov    rdx,rax
  202cb0:	48 8b 45 e8          	mov    rax,QWORD PTR [rbp-0x18]
  202cb4:	48 01 d0             	add    rax,rdx
  202cb7:	48 89 c7             	mov    rdi,rax
  202cba:	e8 47 ff ff ff       	call   202c06 <reserve_page>
  202cbf:	48 83 45 f8 01       	add    QWORD PTR [rbp-0x8],0x1
  202cc4:	eb d5                	jmp    202c9b <reserve_pages+0x18>
  202cc6:	90                   	nop
  202cc7:	c9                   	leave  
  202cc8:	c3                   	ret    

0000000000202cc9 <request_page>:
  202cc9:	55                   	push   rbp
  202cca:	48 89 e5             	mov    rbp,rsp
  202ccd:	48 83 ec 10          	sub    rsp,0x10
  202cd1:	48 c7 45 f8 00 00 00 	mov    QWORD PTR [rbp-0x8],0x0
  202cd8:	00 
  202cd9:	48 8b 05 10 d4 00 00 	mov    rax,QWORD PTR [rip+0xd410]        # 2100f0 <page_bitmap_map>
  202ce0:	48 c1 e0 03          	shl    rax,0x3
  202ce4:	48 39 45 f8          	cmp    QWORD PTR [rbp-0x8],rax
  202ce8:	73 42                	jae    202d2c <request_page+0x63>
  202cea:	48 8b 45 f8          	mov    rax,QWORD PTR [rbp-0x8]
  202cee:	48 89 c6             	mov    rsi,rax
  202cf1:	48 8d 3d f8 d3 00 00 	lea    rdi,[rip+0xd3f8]        # 2100f0 <page_bitmap_map>
  202cf8:	e8 65 0c 00 00       	call   203962 <util::bitmap::operator[](unsigned long)>
  202cfd:	0f b6 c0             	movzx  eax,al
  202d00:	83 f8 01             	cmp    eax,0x1
  202d03:	0f 94 c0             	sete   al
  202d06:	84 c0                	test   al,al
  202d08:	75 1a                	jne    202d24 <request_page+0x5b>
  202d0a:	48 8b 45 f8          	mov    rax,QWORD PTR [rbp-0x8]
  202d0e:	48 c1 e0 0c          	shl    rax,0xc
  202d12:	48 89 c7             	mov    rdi,rax
  202d15:	e8 6c 01 00 00       	call   202e86 <lock_page>
  202d1a:	48 8b 45 f8          	mov    rax,QWORD PTR [rbp-0x8]
  202d1e:	48 c1 e0 0c          	shl    rax,0xc
  202d22:	eb 0d                	jmp    202d31 <request_page+0x68>
  202d24:	90                   	nop
  202d25:	48 83 45 f8 01       	add    QWORD PTR [rbp-0x8],0x1
  202d2a:	eb ad                	jmp    202cd9 <request_page+0x10>
  202d2c:	b8 00 00 00 00       	mov    eax,0x0
  202d31:	c9                   	leave  
  202d32:	c3                   	ret    

0000000000202d33 <request_pages>:
  202d33:	55                   	push   rbp
  202d34:	48 89 e5             	mov    rbp,rsp
  202d37:	48 83 ec 30          	sub    rsp,0x30
  202d3b:	48 89 7d d8          	mov    QWORD PTR [rbp-0x28],rdi
  202d3f:	48 83 7d d8 01       	cmp    QWORD PTR [rbp-0x28],0x1
  202d44:	77 07                	ja     202d4d <request_pages+0x1a>
  202d46:	b8 00 00 00 00       	mov    eax,0x0
  202d4b:	eb 75                	jmp    202dc2 <request_pages+0x8f>
  202d4d:	e8 77 ff ff ff       	call   202cc9 <request_page>
  202d52:	48 89 45 f0          	mov    QWORD PTR [rbp-0x10],rax
  202d56:	48 83 6d d8 01       	sub    QWORD PTR [rbp-0x28],0x1
  202d5b:	48 8b 4d f0          	mov    rcx,QWORD PTR [rbp-0x10]
  202d5f:	48 8b 45 f0          	mov    rax,QWORD PTR [rbp-0x10]
  202d63:	ba 00 00 00 00       	mov    edx,0x0
  202d68:	48 89 ce             	mov    rsi,rcx
  202d6b:	48 89 c7             	mov    rdi,rax
  202d6e:	e8 db 02 00 00       	call   20304e <memory::paging::map_memory(void*, void*, bool)>
  202d73:	48 c7 45 f8 01 00 00 	mov    QWORD PTR [rbp-0x8],0x1
  202d7a:	00 
  202d7b:	48 8b 45 f8          	mov    rax,QWORD PTR [rbp-0x8]
  202d7f:	48 3b 45 d8          	cmp    rax,QWORD PTR [rbp-0x28]
  202d83:	77 39                	ja     202dbe <request_pages+0x8b>
  202d85:	e8 3f ff ff ff       	call   202cc9 <request_page>
  202d8a:	48 89 45 e8          	mov    QWORD PTR [rbp-0x18],rax
  202d8e:	48 8b 45 f8          	mov    rax,QWORD PTR [rbp-0x8]
  202d92:	48 c1 e0 0c          	shl    rax,0xc
  202d96:	48 89 c2             	mov    rdx,rax
  202d99:	48 8b 45 f0          	mov    rax,QWORD PTR [rbp-0x10]
  202d9d:	48 01 d0             	add    rax,rdx
  202da0:	48 89 c1             	mov    rcx,rax
  202da3:	48 8b 45 e8          	mov    rax,QWORD PTR [rbp-0x18]
  202da7:	ba 00 00 00 00       	mov    edx,0x0
  202dac:	48 89 c6             	mov    rsi,rax
  202daf:	48 89 cf             	mov    rdi,rcx
  202db2:	e8 97 02 00 00       	call   20304e <memory::paging::map_memory(void*, void*, bool)>
  202db7:	48 83 45 f8 01       	add    QWORD PTR [rbp-0x8],0x1
  202dbc:	eb bd                	jmp    202d7b <request_pages+0x48>
  202dbe:	48 8b 45 f0          	mov    rax,QWORD PTR [rbp-0x10]
  202dc2:	c9                   	leave  
  202dc3:	c3                   	ret    

0000000000202dc4 <free_page>:
  202dc4:	55                   	push   rbp
  202dc5:	48 89 e5             	mov    rbp,rsp
  202dc8:	48 83 ec 20          	sub    rsp,0x20
  202dcc:	48 89 7d e8          	mov    QWORD PTR [rbp-0x18],rdi
  202dd0:	48 8b 45 e8          	mov    rax,QWORD PTR [rbp-0x18]
  202dd4:	48 c1 e8 0c          	shr    rax,0xc
  202dd8:	48 89 45 f8          	mov    QWORD PTR [rbp-0x8],rax
  202ddc:	48 8b 45 f8          	mov    rax,QWORD PTR [rbp-0x8]
  202de0:	48 89 c6             	mov    rsi,rax
  202de3:	48 8d 3d 06 d3 00 00 	lea    rdi,[rip+0xd306]        # 2100f0 <page_bitmap_map>
  202dea:	e8 73 0b 00 00       	call   203962 <util::bitmap::operator[](unsigned long)>
  202def:	0f b6 c0             	movzx  eax,al
  202df2:	85 c0                	test   eax,eax
  202df4:	0f 94 c0             	sete   al
  202df7:	84 c0                	test   al,al
  202df9:	75 42                	jne    202e3d <free_page+0x79>
  202dfb:	48 8b 45 f8          	mov    rax,QWORD PTR [rbp-0x8]
  202dff:	ba 00 00 00 00       	mov    edx,0x0
  202e04:	48 89 c6             	mov    rsi,rax
  202e07:	48 8d 3d e2 d2 00 00 	lea    rdi,[rip+0xd2e2]        # 2100f0 <page_bitmap_map>
  202e0e:	e8 c9 0b 00 00       	call   2039dc <util::bitmap::set(unsigned long, bool)>
  202e13:	48 8b 05 b6 d2 00 00 	mov    rax,QWORD PTR [rip+0xd2b6]        # 2100d0 <memory::pmm::free_memory_size>
  202e1a:	48 05 00 10 00 00    	add    rax,0x1000
  202e20:	48 89 05 a9 d2 00 00 	mov    QWORD PTR [rip+0xd2a9],rax        # 2100d0 <memory::pmm::free_memory_size>
  202e27:	48 8b 05 aa d2 00 00 	mov    rax,QWORD PTR [rip+0xd2aa]        # 2100d8 <memory::pmm::used_memory_size>
  202e2e:	48 2d 00 10 00 00    	sub    rax,0x1000
  202e34:	48 89 05 9d d2 00 00 	mov    QWORD PTR [rip+0xd29d],rax        # 2100d8 <memory::pmm::used_memory_size>
  202e3b:	eb 01                	jmp    202e3e <free_page+0x7a>
  202e3d:	90                   	nop
  202e3e:	c9                   	leave  
  202e3f:	c3                   	ret    

0000000000202e40 <free_pages>:
  202e40:	55                   	push   rbp
  202e41:	48 89 e5             	mov    rbp,rsp
  202e44:	48 83 ec 20          	sub    rsp,0x20
  202e48:	48 89 7d e8          	mov    QWORD PTR [rbp-0x18],rdi
  202e4c:	48 89 75 e0          	mov    QWORD PTR [rbp-0x20],rsi
  202e50:	48 c7 45 f8 00 00 00 	mov    QWORD PTR [rbp-0x8],0x0
  202e57:	00 
  202e58:	48 8b 45 f8          	mov    rax,QWORD PTR [rbp-0x8]
  202e5c:	48 3b 45 e0          	cmp    rax,QWORD PTR [rbp-0x20]
  202e60:	73 21                	jae    202e83 <free_pages+0x43>
  202e62:	48 8b 45 f8          	mov    rax,QWORD PTR [rbp-0x8]
  202e66:	48 c1 e0 0c          	shl    rax,0xc
  202e6a:	48 89 c2             	mov    rdx,rax
  202e6d:	48 8b 45 e8          	mov    rax,QWORD PTR [rbp-0x18]
  202e71:	48 01 d0             	add    rax,rdx
  202e74:	48 89 c7             	mov    rdi,rax
  202e77:	e8 48 ff ff ff       	call   202dc4 <free_page>
  202e7c:	48 83 45 f8 01       	add    QWORD PTR [rbp-0x8],0x1
  202e81:	eb d5                	jmp    202e58 <free_pages+0x18>
  202e83:	90                   	nop
  202e84:	c9                   	leave  
  202e85:	c3                   	ret    

0000000000202e86 <lock_page>:
  202e86:	55                   	push   rbp
  202e87:	48 89 e5             	mov    rbp,rsp
  202e8a:	48 83 ec 20          	sub    rsp,0x20
  202e8e:	48 89 7d e8          	mov    QWORD PTR [rbp-0x18],rdi
  202e92:	48 8b 45 e8          	mov    rax,QWORD PTR [rbp-0x18]
  202e96:	48 c1 e8 0c          	shr    rax,0xc
  202e9a:	48 89 45 f8          	mov    QWORD PTR [rbp-0x8],rax
  202e9e:	48 8b 45 f8          	mov    rax,QWORD PTR [rbp-0x8]
  202ea2:	48 89 c6             	mov    rsi,rax
  202ea5:	48 8d 3d 44 d2 00 00 	lea    rdi,[rip+0xd244]        # 2100f0 <page_bitmap_map>
  202eac:	e8 b1 0a 00 00       	call   203962 <util::bitmap::operator[](unsigned long)>
  202eb1:	0f b6 c0             	movzx  eax,al
  202eb4:	83 f8 01             	cmp    eax,0x1
  202eb7:	0f 94 c0             	sete   al
  202eba:	84 c0                	test   al,al
  202ebc:	75 42                	jne    202f00 <lock_page+0x7a>
  202ebe:	48 8b 45 f8          	mov    rax,QWORD PTR [rbp-0x8]
  202ec2:	ba 01 00 00 00       	mov    edx,0x1
  202ec7:	48 89 c6             	mov    rsi,rax
  202eca:	48 8d 3d 1f d2 00 00 	lea    rdi,[rip+0xd21f]        # 2100f0 <page_bitmap_map>
  202ed1:	e8 06 0b 00 00       	call   2039dc <util::bitmap::set(unsigned long, bool)>
  202ed6:	48 8b 05 f3 d1 00 00 	mov    rax,QWORD PTR [rip+0xd1f3]        # 2100d0 <memory::pmm::free_memory_size>
  202edd:	48 2d 00 10 00 00    	sub    rax,0x1000
  202ee3:	48 89 05 e6 d1 00 00 	mov    QWORD PTR [rip+0xd1e6],rax        # 2100d0 <memory::pmm::free_memory_size>
  202eea:	48 8b 05 e7 d1 00 00 	mov    rax,QWORD PTR [rip+0xd1e7]        # 2100d8 <memory::pmm::used_memory_size>
  202ef1:	48 05 00 10 00 00    	add    rax,0x1000
  202ef7:	48 89 05 da d1 00 00 	mov    QWORD PTR [rip+0xd1da],rax        # 2100d8 <memory::pmm::used_memory_size>
  202efe:	eb 01                	jmp    202f01 <lock_page+0x7b>
  202f00:	90                   	nop
  202f01:	c9                   	leave  
  202f02:	c3                   	ret    

0000000000202f03 <lock_pages>:
  202f03:	55                   	push   rbp
  202f04:	48 89 e5             	mov    rbp,rsp
  202f07:	48 83 ec 20          	sub    rsp,0x20
  202f0b:	48 89 7d e8          	mov    QWORD PTR [rbp-0x18],rdi
  202f0f:	48 89 75 e0          	mov    QWORD PTR [rbp-0x20],rsi
  202f13:	48 c7 45 f8 00 00 00 	mov    QWORD PTR [rbp-0x8],0x0
  202f1a:	00 
  202f1b:	48 8b 45 f8          	mov    rax,QWORD PTR [rbp-0x8]
  202f1f:	48 3b 45 e0          	cmp    rax,QWORD PTR [rbp-0x20]
  202f23:	73 21                	jae    202f46 <lock_pages+0x43>
  202f25:	48 8b 45 f8          	mov    rax,QWORD PTR [rbp-0x8]
  202f29:	48 c1 e0 0c          	shl    rax,0xc
  202f2d:	48 89 c2             	mov    rdx,rax
  202f30:	48 8b 45 e8          	mov    rax,QWORD PTR [rbp-0x18]
  202f34:	48 01 d0             	add    rax,rdx
  202f37:	48 89 c7             	mov    rdi,rax
  202f3a:	e8 47 ff ff ff       	call   202e86 <lock_page>
  202f3f:	48 83 45 f8 01       	add    QWORD PTR [rbp-0x8],0x1
  202f44:	eb d5                	jmp    202f1b <lock_pages+0x18>
  202f46:	90                   	nop
  202f47:	c9                   	leave  
  202f48:	c3                   	ret    

0000000000202f49 <memory::operations::memcpy(void*, void const*, unsigned long)>:
  202f49:	55                   	push   rbp
  202f4a:	48 89 e5             	mov    rbp,rsp
  202f4d:	48 83 ec 18          	sub    rsp,0x18
  202f51:	48 89 7d f8          	mov    QWORD PTR [rbp-0x8],rdi
  202f55:	48 89 75 f0          	mov    QWORD PTR [rbp-0x10],rsi
  202f59:	48 89 55 e8          	mov    QWORD PTR [rbp-0x18],rdx
  202f5d:	48 8b 4d e8          	mov    rcx,QWORD PTR [rbp-0x18]
  202f61:	48 8b 55 f0          	mov    rdx,QWORD PTR [rbp-0x10]
  202f65:	48 8b 45 f8          	mov    rax,QWORD PTR [rbp-0x8]
  202f69:	48 89 d6             	mov    rsi,rdx
  202f6c:	48 89 c7             	mov    rdi,rax
  202f6f:	fc                   	cld    
  202f70:	f3 a4                	rep movs BYTE PTR es:[rdi],BYTE PTR ds:[rsi]
  202f72:	48 89 f8             	mov    rax,rdi
  202f75:	48 89 f2             	mov    rdx,rsi
  202f78:	48 89 4d e8          	mov    QWORD PTR [rbp-0x18],rcx
  202f7c:	48 89 55 f0          	mov    QWORD PTR [rbp-0x10],rdx
  202f80:	48 89 45 f8          	mov    QWORD PTR [rbp-0x8],rax
  202f84:	48 8b 45 f8          	mov    rax,QWORD PTR [rbp-0x8]
  202f88:	c9                   	leave  
  202f89:	c3                   	ret    

0000000000202f8a <memory::operations::memset(void*, unsigned char, unsigned long)>:
  202f8a:	55                   	push   rbp
  202f8b:	48 89 e5             	mov    rbp,rsp
  202f8e:	48 83 ec 28          	sub    rsp,0x28
  202f92:	48 89 7d e8          	mov    QWORD PTR [rbp-0x18],rdi
  202f96:	89 f0                	mov    eax,esi
  202f98:	48 89 55 d8          	mov    QWORD PTR [rbp-0x28],rdx
  202f9c:	88 45 e4             	mov    BYTE PTR [rbp-0x1c],al
  202f9f:	48 8b 45 e8          	mov    rax,QWORD PTR [rbp-0x18]
  202fa3:	48 89 45 f0          	mov    QWORD PTR [rbp-0x10],rax
  202fa7:	48 c7 45 f8 00 00 00 	mov    QWORD PTR [rbp-0x8],0x0
  202fae:	00 
  202faf:	48 8b 45 f8          	mov    rax,QWORD PTR [rbp-0x8]
  202fb3:	48 3b 45 d8          	cmp    rax,QWORD PTR [rbp-0x28]
  202fb7:	73 18                	jae    202fd1 <memory::operations::memset(void*, unsigned char, unsigned long)+0x47>
  202fb9:	48 8b 55 f0          	mov    rdx,QWORD PTR [rbp-0x10]
  202fbd:	48 8b 45 f8          	mov    rax,QWORD PTR [rbp-0x8]
  202fc1:	48 01 c2             	add    rdx,rax
  202fc4:	0f b6 45 e4          	movzx  eax,BYTE PTR [rbp-0x1c]
  202fc8:	88 02                	mov    BYTE PTR [rdx],al
  202fca:	48 83 45 f8 01       	add    QWORD PTR [rbp-0x8],0x1
  202fcf:	eb de                	jmp    202faf <memory::operations::memset(void*, unsigned char, unsigned long)+0x25>
  202fd1:	48 8b 45 e8          	mov    rax,QWORD PTR [rbp-0x18]
  202fd5:	c9                   	leave  
  202fd6:	c3                   	ret    
  202fd7:	90                   	nop

0000000000202fd8 <memory::paging::page_map_indexer::page_map_indexer(unsigned long)>:
  202fd8:	55                   	push   rbp
  202fd9:	48 89 e5             	mov    rbp,rsp
  202fdc:	48 83 ec 10          	sub    rsp,0x10
  202fe0:	48 89 7d f8          	mov    QWORD PTR [rbp-0x8],rdi
  202fe4:	48 89 75 f0          	mov    QWORD PTR [rbp-0x10],rsi
  202fe8:	48 c1 6d f0 0c       	shr    QWORD PTR [rbp-0x10],0xc
  202fed:	48 8b 45 f0          	mov    rax,QWORD PTR [rbp-0x10]
  202ff1:	25 ff 01 00 00       	and    eax,0x1ff
  202ff6:	48 89 c2             	mov    rdx,rax
  202ff9:	48 8b 45 f8          	mov    rax,QWORD PTR [rbp-0x8]
  202ffd:	48 89 50 18          	mov    QWORD PTR [rax+0x18],rdx
  203001:	48 c1 6d f0 09       	shr    QWORD PTR [rbp-0x10],0x9
  203006:	48 8b 45 f0          	mov    rax,QWORD PTR [rbp-0x10]
  20300a:	25 ff 01 00 00       	and    eax,0x1ff
  20300f:	48 89 c2             	mov    rdx,rax
  203012:	48 8b 45 f8          	mov    rax,QWORD PTR [rbp-0x8]
  203016:	48 89 50 10          	mov    QWORD PTR [rax+0x10],rdx
  20301a:	48 c1 6d f0 09       	shr    QWORD PTR [rbp-0x10],0x9
  20301f:	48 8b 45 f0          	mov    rax,QWORD PTR [rbp-0x10]
  203023:	25 ff 01 00 00       	and    eax,0x1ff
  203028:	48 89 c2             	mov    rdx,rax
  20302b:	48 8b 45 f8          	mov    rax,QWORD PTR [rbp-0x8]
  20302f:	48 89 50 08          	mov    QWORD PTR [rax+0x8],rdx
  203033:	48 c1 6d f0 09       	shr    QWORD PTR [rbp-0x10],0x9
  203038:	48 8b 45 f0          	mov    rax,QWORD PTR [rbp-0x10]
  20303c:	25 ff 01 00 00       	and    eax,0x1ff
  203041:	48 89 c2             	mov    rdx,rax
  203044:	48 8b 45 f8          	mov    rax,QWORD PTR [rbp-0x8]
  203048:	48 89 10             	mov    QWORD PTR [rax],rdx
  20304b:	90                   	nop
  20304c:	c9                   	leave  
  20304d:	c3                   	ret    

000000000020304e <memory::paging::map_memory(void*, void*, bool)>:
  20304e:	55                   	push   rbp
  20304f:	48 89 e5             	mov    rbp,rsp
  203052:	48 83 ec 70          	sub    rsp,0x70
  203056:	48 89 7d a8          	mov    QWORD PTR [rbp-0x58],rdi
  20305a:	48 89 75 a0          	mov    QWORD PTR [rbp-0x60],rsi
  20305e:	89 d0                	mov    eax,edx
  203060:	88 45 9c             	mov    BYTE PTR [rbp-0x64],al
  203063:	48 8b 55 a8          	mov    rdx,QWORD PTR [rbp-0x58]
  203067:	48 8d 45 c0          	lea    rax,[rbp-0x40]
  20306b:	48 89 d6             	mov    rsi,rdx
  20306e:	48 89 c7             	mov    rdi,rax
  203071:	e8 62 ff ff ff       	call   202fd8 <memory::paging::page_map_indexer::page_map_indexer(unsigned long)>
  203076:	48 8b 05 93 d0 00 00 	mov    rax,QWORD PTR [rip+0xd093]        # 210110 <memory::paging::pml_4>
  20307d:	48 8b 55 c0          	mov    rdx,QWORD PTR [rbp-0x40]
  203081:	48 8b 04 d0          	mov    rax,QWORD PTR [rax+rdx*8]
  203085:	48 89 45 b8          	mov    QWORD PTR [rbp-0x48],rax
  203089:	48 8d 45 b8          	lea    rax,[rbp-0x48]
  20308d:	be 00 00 00 00       	mov    esi,0x0
  203092:	48 89 c7             	mov    rdi,rax
  203095:	e8 a0 05 00 00       	call   20363a <memory::paging::page_directory_entry::get_flag(memory::paging::pt_flag)>
  20309a:	83 f0 01             	xor    eax,0x1
  20309d:	84 c0                	test   al,al
  20309f:	0f 84 92 00 00 00    	je     203137 <memory::paging::map_memory(void*, void*, bool)+0xe9>
  2030a5:	e8 1f fc ff ff       	call   202cc9 <request_page>
  2030aa:	48 89 45 f8          	mov    QWORD PTR [rbp-0x8],rax
  2030ae:	48 8b 45 f8          	mov    rax,QWORD PTR [rbp-0x8]
  2030b2:	ba 00 10 00 00       	mov    edx,0x1000
  2030b7:	be 00 00 00 00       	mov    esi,0x0
  2030bc:	48 89 c7             	mov    rdi,rax
  2030bf:	e8 c6 fe ff ff       	call   202f8a <memory::operations::memset(void*, unsigned char, unsigned long)>
  2030c4:	48 8b 45 f8          	mov    rax,QWORD PTR [rbp-0x8]
  2030c8:	48 c1 e8 0c          	shr    rax,0xc
  2030cc:	48 89 c2             	mov    rdx,rax
  2030cf:	48 8d 45 b8          	lea    rax,[rbp-0x48]
  2030d3:	48 89 d6             	mov    rsi,rdx
  2030d6:	48 89 c7             	mov    rdi,rax
  2030d9:	e8 b4 05 00 00       	call   203692 <memory::paging::page_directory_entry::set_address(unsigned long)>
  2030de:	48 8d 45 b8          	lea    rax,[rbp-0x48]
  2030e2:	ba 01 00 00 00       	mov    edx,0x1
  2030e7:	be 00 00 00 00       	mov    esi,0x0
  2030ec:	48 89 c7             	mov    rdi,rax
  2030ef:	e8 e8 04 00 00       	call   2035dc <memory::paging::page_directory_entry::set_flag(memory::paging::pt_flag, bool)>
  2030f4:	48 8d 45 b8          	lea    rax,[rbp-0x48]
  2030f8:	ba 01 00 00 00       	mov    edx,0x1
  2030fd:	be 01 00 00 00       	mov    esi,0x1
  203102:	48 89 c7             	mov    rdi,rax
  203105:	e8 d2 04 00 00       	call   2035dc <memory::paging::page_directory_entry::set_flag(memory::paging::pt_flag, bool)>
  20310a:	48 8b 05 ff cf 00 00 	mov    rax,QWORD PTR [rip+0xcfff]        # 210110 <memory::paging::pml_4>
  203111:	48 8b 55 c0          	mov    rdx,QWORD PTR [rbp-0x40]
  203115:	48 8b 4d b8          	mov    rcx,QWORD PTR [rbp-0x48]
  203119:	48 89 0c d0          	mov    QWORD PTR [rax+rdx*8],rcx
  20311d:	48 8b 4d f8          	mov    rcx,QWORD PTR [rbp-0x8]
  203121:	48 8b 45 f8          	mov    rax,QWORD PTR [rbp-0x8]
  203125:	ba 00 00 00 00       	mov    edx,0x0
  20312a:	48 89 ce             	mov    rsi,rcx
  20312d:	48 89 c7             	mov    rdi,rax
  203130:	e8 19 ff ff ff       	call   20304e <memory::paging::map_memory(void*, void*, bool)>
  203135:	eb 14                	jmp    20314b <memory::paging::map_memory(void*, void*, bool)+0xfd>
  203137:	48 8d 45 b8          	lea    rax,[rbp-0x48]
  20313b:	48 89 c7             	mov    rdi,rax
  20313e:	e8 2d 05 00 00       	call   203670 <memory::paging::page_directory_entry::get_address()>
  203143:	48 c1 e0 0c          	shl    rax,0xc
  203147:	48 89 45 f8          	mov    QWORD PTR [rbp-0x8],rax
  20314b:	48 8b 55 c8          	mov    rdx,QWORD PTR [rbp-0x38]
  20314f:	48 8b 45 f8          	mov    rax,QWORD PTR [rbp-0x8]
  203153:	48 8b 04 d0          	mov    rax,QWORD PTR [rax+rdx*8]
  203157:	48 89 45 b8          	mov    QWORD PTR [rbp-0x48],rax
  20315b:	48 8d 45 b8          	lea    rax,[rbp-0x48]
  20315f:	be 00 00 00 00       	mov    esi,0x0
  203164:	48 89 c7             	mov    rdi,rax
  203167:	e8 ce 04 00 00       	call   20363a <memory::paging::page_directory_entry::get_flag(memory::paging::pt_flag)>
  20316c:	83 f0 01             	xor    eax,0x1
  20316f:	84 c0                	test   al,al
  203171:	0f 84 8f 00 00 00    	je     203206 <memory::paging::map_memory(void*, void*, bool)+0x1b8>
  203177:	e8 4d fb ff ff       	call   202cc9 <request_page>
  20317c:	48 89 45 f0          	mov    QWORD PTR [rbp-0x10],rax
  203180:	48 8b 45 f0          	mov    rax,QWORD PTR [rbp-0x10]
  203184:	ba 00 10 00 00       	mov    edx,0x1000
  203189:	be 00 00 00 00       	mov    esi,0x0
  20318e:	48 89 c7             	mov    rdi,rax
  203191:	e8 f4 fd ff ff       	call   202f8a <memory::operations::memset(void*, unsigned char, unsigned long)>
  203196:	48 8b 45 f0          	mov    rax,QWORD PTR [rbp-0x10]
  20319a:	48 c1 e8 0c          	shr    rax,0xc
  20319e:	48 89 c2             	mov    rdx,rax
  2031a1:	48 8d 45 b8          	lea    rax,[rbp-0x48]
  2031a5:	48 89 d6             	mov    rsi,rdx
  2031a8:	48 89 c7             	mov    rdi,rax
  2031ab:	e8 e2 04 00 00       	call   203692 <memory::paging::page_directory_entry::set_address(unsigned long)>
  2031b0:	48 8d 45 b8          	lea    rax,[rbp-0x48]
  2031b4:	ba 01 00 00 00       	mov    edx,0x1
  2031b9:	be 00 00 00 00       	mov    esi,0x0
  2031be:	48 89 c7             	mov    rdi,rax
  2031c1:	e8 16 04 00 00       	call   2035dc <memory::paging::page_directory_entry::set_flag(memory::paging::pt_flag, bool)>
  2031c6:	48 8d 45 b8          	lea    rax,[rbp-0x48]
  2031ca:	ba 01 00 00 00       	mov    edx,0x1
  2031cf:	be 01 00 00 00       	mov    esi,0x1
  2031d4:	48 89 c7             	mov    rdi,rax
  2031d7:	e8 00 04 00 00       	call   2035dc <memory::paging::page_directory_entry::set_flag(memory::paging::pt_flag, bool)>
  2031dc:	48 8b 55 c8          	mov    rdx,QWORD PTR [rbp-0x38]
  2031e0:	48 8b 45 f8          	mov    rax,QWORD PTR [rbp-0x8]
  2031e4:	48 8b 4d b8          	mov    rcx,QWORD PTR [rbp-0x48]
  2031e8:	48 89 0c d0          	mov    QWORD PTR [rax+rdx*8],rcx
  2031ec:	48 8b 4d f0          	mov    rcx,QWORD PTR [rbp-0x10]
  2031f0:	48 8b 45 f0          	mov    rax,QWORD PTR [rbp-0x10]
  2031f4:	ba 00 00 00 00       	mov    edx,0x0
  2031f9:	48 89 ce             	mov    rsi,rcx
  2031fc:	48 89 c7             	mov    rdi,rax
  2031ff:	e8 4a fe ff ff       	call   20304e <memory::paging::map_memory(void*, void*, bool)>
  203204:	eb 14                	jmp    20321a <memory::paging::map_memory(void*, void*, bool)+0x1cc>
  203206:	48 8d 45 b8          	lea    rax,[rbp-0x48]
  20320a:	48 89 c7             	mov    rdi,rax
  20320d:	e8 5e 04 00 00       	call   203670 <memory::paging::page_directory_entry::get_address()>
  203212:	48 c1 e0 0c          	shl    rax,0xc
  203216:	48 89 45 f0          	mov    QWORD PTR [rbp-0x10],rax
  20321a:	48 8b 55 d0          	mov    rdx,QWORD PTR [rbp-0x30]
  20321e:	48 8b 45 f0          	mov    rax,QWORD PTR [rbp-0x10]
  203222:	48 8b 04 d0          	mov    rax,QWORD PTR [rax+rdx*8]
  203226:	48 89 45 b8          	mov    QWORD PTR [rbp-0x48],rax
  20322a:	48 8d 45 b8          	lea    rax,[rbp-0x48]
  20322e:	be 00 00 00 00       	mov    esi,0x0
  203233:	48 89 c7             	mov    rdi,rax
  203236:	e8 ff 03 00 00       	call   20363a <memory::paging::page_directory_entry::get_flag(memory::paging::pt_flag)>
  20323b:	83 f0 01             	xor    eax,0x1
  20323e:	84 c0                	test   al,al
  203240:	0f 84 8f 00 00 00    	je     2032d5 <memory::paging::map_memory(void*, void*, bool)+0x287>
  203246:	e8 7e fa ff ff       	call   202cc9 <request_page>
  20324b:	48 89 45 e8          	mov    QWORD PTR [rbp-0x18],rax
  20324f:	48 8b 45 e8          	mov    rax,QWORD PTR [rbp-0x18]
  203253:	ba 00 10 00 00       	mov    edx,0x1000
  203258:	be 00 00 00 00       	mov    esi,0x0
  20325d:	48 89 c7             	mov    rdi,rax
  203260:	e8 25 fd ff ff       	call   202f8a <memory::operations::memset(void*, unsigned char, unsigned long)>
  203265:	48 8b 45 e8          	mov    rax,QWORD PTR [rbp-0x18]
  203269:	48 c1 e8 0c          	shr    rax,0xc
  20326d:	48 89 c2             	mov    rdx,rax
  203270:	48 8d 45 b8          	lea    rax,[rbp-0x48]
  203274:	48 89 d6             	mov    rsi,rdx
  203277:	48 89 c7             	mov    rdi,rax
  20327a:	e8 13 04 00 00       	call   203692 <memory::paging::page_directory_entry::set_address(unsigned long)>
  20327f:	48 8d 45 b8          	lea    rax,[rbp-0x48]
  203283:	ba 01 00 00 00       	mov    edx,0x1
  203288:	be 00 00 00 00       	mov    esi,0x0
  20328d:	48 89 c7             	mov    rdi,rax
  203290:	e8 47 03 00 00       	call   2035dc <memory::paging::page_directory_entry::set_flag(memory::paging::pt_flag, bool)>
  203295:	48 8d 45 b8          	lea    rax,[rbp-0x48]
  203299:	ba 01 00 00 00       	mov    edx,0x1
  20329e:	be 01 00 00 00       	mov    esi,0x1
  2032a3:	48 89 c7             	mov    rdi,rax
  2032a6:	e8 31 03 00 00       	call   2035dc <memory::paging::page_directory_entry::set_flag(memory::paging::pt_flag, bool)>
  2032ab:	48 8b 55 d0          	mov    rdx,QWORD PTR [rbp-0x30]
  2032af:	48 8b 45 f0          	mov    rax,QWORD PTR [rbp-0x10]
  2032b3:	48 8b 4d b8          	mov    rcx,QWORD PTR [rbp-0x48]
  2032b7:	48 89 0c d0          	mov    QWORD PTR [rax+rdx*8],rcx
  2032bb:	48 8b 4d e8          	mov    rcx,QWORD PTR [rbp-0x18]
  2032bf:	48 8b 45 e8          	mov    rax,QWORD PTR [rbp-0x18]
  2032c3:	ba 00 00 00 00       	mov    edx,0x0
  2032c8:	48 89 ce             	mov    rsi,rcx
  2032cb:	48 89 c7             	mov    rdi,rax
  2032ce:	e8 7b fd ff ff       	call   20304e <memory::paging::map_memory(void*, void*, bool)>
  2032d3:	eb 14                	jmp    2032e9 <memory::paging::map_memory(void*, void*, bool)+0x29b>
  2032d5:	48 8d 45 b8          	lea    rax,[rbp-0x48]
  2032d9:	48 89 c7             	mov    rdi,rax
  2032dc:	e8 8f 03 00 00       	call   203670 <memory::paging::page_directory_entry::get_address()>
  2032e1:	48 c1 e0 0c          	shl    rax,0xc
  2032e5:	48 89 45 e8          	mov    QWORD PTR [rbp-0x18],rax
  2032e9:	48 8b 55 d8          	mov    rdx,QWORD PTR [rbp-0x28]
  2032ed:	48 8b 45 e8          	mov    rax,QWORD PTR [rbp-0x18]
  2032f1:	48 8b 04 d0          	mov    rax,QWORD PTR [rax+rdx*8]
  2032f5:	48 89 45 b8          	mov    QWORD PTR [rbp-0x48],rax
  2032f9:	48 8b 45 a0          	mov    rax,QWORD PTR [rbp-0x60]
  2032fd:	48 c1 e8 0c          	shr    rax,0xc
  203301:	48 89 c2             	mov    rdx,rax
  203304:	48 8d 45 b8          	lea    rax,[rbp-0x48]
  203308:	48 89 d6             	mov    rsi,rdx
  20330b:	48 89 c7             	mov    rdi,rax
  20330e:	e8 7f 03 00 00       	call   203692 <memory::paging::page_directory_entry::set_address(unsigned long)>
  203313:	48 8d 45 b8          	lea    rax,[rbp-0x48]
  203317:	ba 01 00 00 00       	mov    edx,0x1
  20331c:	be 00 00 00 00       	mov    esi,0x0
  203321:	48 89 c7             	mov    rdi,rax
  203324:	e8 b3 02 00 00       	call   2035dc <memory::paging::page_directory_entry::set_flag(memory::paging::pt_flag, bool)>
  203329:	48 8d 45 b8          	lea    rax,[rbp-0x48]
  20332d:	ba 01 00 00 00       	mov    edx,0x1
  203332:	be 01 00 00 00       	mov    esi,0x1
  203337:	48 89 c7             	mov    rdi,rax
  20333a:	e8 9d 02 00 00       	call   2035dc <memory::paging::page_directory_entry::set_flag(memory::paging::pt_flag, bool)>
  20333f:	0f b6 55 9c          	movzx  edx,BYTE PTR [rbp-0x64]
  203343:	48 8d 45 b8          	lea    rax,[rbp-0x48]
  203347:	89 d6                	mov    esi,edx
  203349:	48 89 c7             	mov    rdi,rax
  20334c:	e8 97 03 00 00       	call   2036e8 <memory::paging::page_directory_entry::set_pat(unsigned char)>
  203351:	48 8b 55 d8          	mov    rdx,QWORD PTR [rbp-0x28]
  203355:	48 8b 45 e8          	mov    rax,QWORD PTR [rbp-0x18]
  203359:	48 8b 4d b8          	mov    rcx,QWORD PTR [rbp-0x48]
  20335d:	48 89 0c d0          	mov    QWORD PTR [rax+rdx*8],rcx
  203361:	90                   	nop
  203362:	c9                   	leave  
  203363:	c3                   	ret    

0000000000203364 <memory::paging::get_physical_address(void*)>:
  203364:	55                   	push   rbp
  203365:	48 89 e5             	mov    rbp,rsp
  203368:	48 83 ec 60          	sub    rsp,0x60
  20336c:	48 89 7d a8          	mov    QWORD PTR [rbp-0x58],rdi
  203370:	48 8b 55 a8          	mov    rdx,QWORD PTR [rbp-0x58]
  203374:	48 8d 45 c0          	lea    rax,[rbp-0x40]
  203378:	48 89 d6             	mov    rsi,rdx
  20337b:	48 89 c7             	mov    rdi,rax
  20337e:	e8 55 fc ff ff       	call   202fd8 <memory::paging::page_map_indexer::page_map_indexer(unsigned long)>
  203383:	48 8b 45 a8          	mov    rax,QWORD PTR [rbp-0x58]
  203387:	66 25 ff 0f          	and    ax,0xfff
  20338b:	66 89 45 fe          	mov    WORD PTR [rbp-0x2],ax
  20338f:	48 8b 45 a8          	mov    rax,QWORD PTR [rbp-0x58]
  203393:	48 f7 d0             	not    rax
  203396:	48 89 45 a8          	mov    QWORD PTR [rbp-0x58],rax
  20339a:	48 8b 05 6f cd 00 00 	mov    rax,QWORD PTR [rip+0xcd6f]        # 210110 <memory::paging::pml_4>
  2033a1:	48 8b 55 c0          	mov    rdx,QWORD PTR [rbp-0x40]
  2033a5:	48 8b 04 d0          	mov    rax,QWORD PTR [rax+rdx*8]
  2033a9:	48 89 45 b8          	mov    QWORD PTR [rbp-0x48],rax
  2033ad:	48 8d 45 b8          	lea    rax,[rbp-0x48]
  2033b1:	be 00 00 00 00       	mov    esi,0x0
  2033b6:	48 89 c7             	mov    rdi,rax
  2033b9:	e8 7c 02 00 00       	call   20363a <memory::paging::page_directory_entry::get_flag(memory::paging::pt_flag)>
  2033be:	83 f0 01             	xor    eax,0x1
  2033c1:	84 c0                	test   al,al
  2033c3:	74 0c                	je     2033d1 <memory::paging::get_physical_address(void*)+0x6d>
  2033c5:	48 c7 c0 ff ff ff ff 	mov    rax,0xffffffffffffffff
  2033cc:	e9 e5 00 00 00       	jmp    2034b6 <memory::paging::get_physical_address(void*)+0x152>
  2033d1:	48 8d 45 b8          	lea    rax,[rbp-0x48]
  2033d5:	48 89 c7             	mov    rdi,rax
  2033d8:	e8 93 02 00 00       	call   203670 <memory::paging::page_directory_entry::get_address()>
  2033dd:	48 c1 e0 0c          	shl    rax,0xc
  2033e1:	48 89 45 f0          	mov    QWORD PTR [rbp-0x10],rax
  2033e5:	48 8b 55 c8          	mov    rdx,QWORD PTR [rbp-0x38]
  2033e9:	48 8b 45 f0          	mov    rax,QWORD PTR [rbp-0x10]
  2033ed:	48 8b 04 d0          	mov    rax,QWORD PTR [rax+rdx*8]
  2033f1:	48 89 45 b8          	mov    QWORD PTR [rbp-0x48],rax
  2033f5:	48 8d 45 b8          	lea    rax,[rbp-0x48]
  2033f9:	be 00 00 00 00       	mov    esi,0x0
  2033fe:	48 89 c7             	mov    rdi,rax
  203401:	e8 34 02 00 00       	call   20363a <memory::paging::page_directory_entry::get_flag(memory::paging::pt_flag)>
  203406:	83 f0 01             	xor    eax,0x1
  203409:	84 c0                	test   al,al
  20340b:	74 0c                	je     203419 <memory::paging::get_physical_address(void*)+0xb5>
  20340d:	48 c7 c0 ff ff ff ff 	mov    rax,0xffffffffffffffff
  203414:	e9 9d 00 00 00       	jmp    2034b6 <memory::paging::get_physical_address(void*)+0x152>
  203419:	48 8d 45 b8          	lea    rax,[rbp-0x48]
  20341d:	48 89 c7             	mov    rdi,rax
  203420:	e8 4b 02 00 00       	call   203670 <memory::paging::page_directory_entry::get_address()>
  203425:	48 c1 e0 0c          	shl    rax,0xc
  203429:	48 89 45 e8          	mov    QWORD PTR [rbp-0x18],rax
  20342d:	48 8b 55 d0          	mov    rdx,QWORD PTR [rbp-0x30]
  203431:	48 8b 45 e8          	mov    rax,QWORD PTR [rbp-0x18]
  203435:	48 8b 04 d0          	mov    rax,QWORD PTR [rax+rdx*8]
  203439:	48 89 45 b8          	mov    QWORD PTR [rbp-0x48],rax
  20343d:	48 8d 45 b8          	lea    rax,[rbp-0x48]
  203441:	be 00 00 00 00       	mov    esi,0x0
  203446:	48 89 c7             	mov    rdi,rax
  203449:	e8 ec 01 00 00       	call   20363a <memory::paging::page_directory_entry::get_flag(memory::paging::pt_flag)>
  20344e:	83 f0 01             	xor    eax,0x1
  203451:	84 c0                	test   al,al
  203453:	74 09                	je     20345e <memory::paging::get_physical_address(void*)+0xfa>
  203455:	48 c7 c0 ff ff ff ff 	mov    rax,0xffffffffffffffff
  20345c:	eb 58                	jmp    2034b6 <memory::paging::get_physical_address(void*)+0x152>
  20345e:	48 8d 45 b8          	lea    rax,[rbp-0x48]
  203462:	48 89 c7             	mov    rdi,rax
  203465:	e8 06 02 00 00       	call   203670 <memory::paging::page_directory_entry::get_address()>
  20346a:	48 c1 e0 0c          	shl    rax,0xc
  20346e:	48 89 45 e0          	mov    QWORD PTR [rbp-0x20],rax
  203472:	48 8b 55 d8          	mov    rdx,QWORD PTR [rbp-0x28]
  203476:	48 8b 45 e0          	mov    rax,QWORD PTR [rbp-0x20]
  20347a:	48 8b 04 d0          	mov    rax,QWORD PTR [rax+rdx*8]
  20347e:	48 89 45 b8          	mov    QWORD PTR [rbp-0x48],rax
  203482:	48 8d 45 b8          	lea    rax,[rbp-0x48]
  203486:	be 00 00 00 00       	mov    esi,0x0
  20348b:	48 89 c7             	mov    rdi,rax
  20348e:	e8 a7 01 00 00       	call   20363a <memory::paging::page_directory_entry::get_flag(memory::paging::pt_flag)>
  203493:	83 f0 01             	xor    eax,0x1
  203496:	84 c0                	test   al,al
  203498:	74 09                	je     2034a3 <memory::paging::get_physical_address(void*)+0x13f>
  20349a:	48 c7 c0 ff ff ff ff 	mov    rax,0xffffffffffffffff
  2034a1:	eb 13                	jmp    2034b6 <memory::paging::get_physical_address(void*)+0x152>
  2034a3:	48 8d 45 b8          	lea    rax,[rbp-0x48]
  2034a7:	48 89 c7             	mov    rdi,rax
  2034aa:	e8 c1 01 00 00       	call   203670 <memory::paging::page_directory_entry::get_address()>
  2034af:	0f b7 55 fe          	movzx  edx,WORD PTR [rbp-0x2]
  2034b3:	48 09 d0             	or     rax,rdx
  2034b6:	c9                   	leave  
  2034b7:	c3                   	ret    

00000000002034b8 <donate_to_userspace>:
  2034b8:	55                   	push   rbp
  2034b9:	48 89 e5             	mov    rbp,rsp
  2034bc:	48 83 ec 60          	sub    rsp,0x60
  2034c0:	48 89 7d a8          	mov    QWORD PTR [rbp-0x58],rdi
  2034c4:	48 8b 55 a8          	mov    rdx,QWORD PTR [rbp-0x58]
  2034c8:	48 8d 45 c0          	lea    rax,[rbp-0x40]
  2034cc:	48 89 d6             	mov    rsi,rdx
  2034cf:	48 89 c7             	mov    rdi,rax
  2034d2:	e8 01 fb ff ff       	call   202fd8 <memory::paging::page_map_indexer::page_map_indexer(unsigned long)>
  2034d7:	48 8b 05 32 cc 00 00 	mov    rax,QWORD PTR [rip+0xcc32]        # 210110 <memory::paging::pml_4>
  2034de:	48 8b 55 c0          	mov    rdx,QWORD PTR [rbp-0x40]
  2034e2:	48 8b 04 d0          	mov    rax,QWORD PTR [rax+rdx*8]
  2034e6:	48 89 45 b8          	mov    QWORD PTR [rbp-0x48],rax
  2034ea:	48 8b 15 1f cc 00 00 	mov    rdx,QWORD PTR [rip+0xcc1f]        # 210110 <memory::paging::pml_4>
  2034f1:	48 8b 45 c0          	mov    rax,QWORD PTR [rbp-0x40]
  2034f5:	48 c1 e0 03          	shl    rax,0x3
  2034f9:	48 01 d0             	add    rax,rdx
  2034fc:	ba 01 00 00 00       	mov    edx,0x1
  203501:	be 02 00 00 00       	mov    esi,0x2
  203506:	48 89 c7             	mov    rdi,rax
  203509:	e8 ce 00 00 00       	call   2035dc <memory::paging::page_directory_entry::set_flag(memory::paging::pt_flag, bool)>
  20350e:	48 8d 45 b8          	lea    rax,[rbp-0x48]
  203512:	48 89 c7             	mov    rdi,rax
  203515:	e8 56 01 00 00       	call   203670 <memory::paging::page_directory_entry::get_address()>
  20351a:	48 c1 e0 0c          	shl    rax,0xc
  20351e:	48 89 45 f8          	mov    QWORD PTR [rbp-0x8],rax
  203522:	48 8b 45 c8          	mov    rax,QWORD PTR [rbp-0x38]
  203526:	48 8d 14 c5 00 00 00 	lea    rdx,[rax*8+0x0]
  20352d:	00 
  20352e:	48 8b 45 f8          	mov    rax,QWORD PTR [rbp-0x8]
  203532:	48 01 d0             	add    rax,rdx
  203535:	ba 01 00 00 00       	mov    edx,0x1
  20353a:	be 02 00 00 00       	mov    esi,0x2
  20353f:	48 89 c7             	mov    rdi,rax
  203542:	e8 95 00 00 00       	call   2035dc <memory::paging::page_directory_entry::set_flag(memory::paging::pt_flag, bool)>
  203547:	48 8b 55 c8          	mov    rdx,QWORD PTR [rbp-0x38]
  20354b:	48 8b 45 f8          	mov    rax,QWORD PTR [rbp-0x8]
  20354f:	48 8b 04 d0          	mov    rax,QWORD PTR [rax+rdx*8]
  203553:	48 89 45 b8          	mov    QWORD PTR [rbp-0x48],rax
  203557:	48 8d 45 b8          	lea    rax,[rbp-0x48]
  20355b:	48 89 c7             	mov    rdi,rax
  20355e:	e8 0d 01 00 00       	call   203670 <memory::paging::page_directory_entry::get_address()>
  203563:	48 c1 e0 0c          	shl    rax,0xc
  203567:	48 89 45 f0          	mov    QWORD PTR [rbp-0x10],rax
  20356b:	48 8b 45 d0          	mov    rax,QWORD PTR [rbp-0x30]
  20356f:	48 8d 14 c5 00 00 00 	lea    rdx,[rax*8+0x0]
  203576:	00 
  203577:	48 8b 45 f0          	mov    rax,QWORD PTR [rbp-0x10]
  20357b:	48 01 d0             	add    rax,rdx
  20357e:	ba 01 00 00 00       	mov    edx,0x1
  203583:	be 02 00 00 00       	mov    esi,0x2
  203588:	48 89 c7             	mov    rdi,rax
  20358b:	e8 4c 00 00 00       	call   2035dc <memory::paging::page_directory_entry::set_flag(memory::paging::pt_flag, bool)>
  203590:	48 8b 55 d0          	mov    rdx,QWORD PTR [rbp-0x30]
  203594:	48 8b 45 f0          	mov    rax,QWORD PTR [rbp-0x10]
  203598:	48 8b 04 d0          	mov    rax,QWORD PTR [rax+rdx*8]
  20359c:	48 89 45 b8          	mov    QWORD PTR [rbp-0x48],rax
  2035a0:	48 8d 45 b8          	lea    rax,[rbp-0x48]
  2035a4:	48 89 c7             	mov    rdi,rax
  2035a7:	e8 c4 00 00 00       	call   203670 <memory::paging::page_directory_entry::get_address()>
  2035ac:	48 c1 e0 0c          	shl    rax,0xc
  2035b0:	48 89 45 e8          	mov    QWORD PTR [rbp-0x18],rax
  2035b4:	48 8b 45 d8          	mov    rax,QWORD PTR [rbp-0x28]
  2035b8:	48 8d 14 c5 00 00 00 	lea    rdx,[rax*8+0x0]
  2035bf:	00 
  2035c0:	48 8b 45 e8          	mov    rax,QWORD PTR [rbp-0x18]
  2035c4:	48 01 d0             	add    rax,rdx
  2035c7:	ba 01 00 00 00       	mov    edx,0x1
  2035cc:	be 02 00 00 00       	mov    esi,0x2
  2035d1:	48 89 c7             	mov    rdi,rax
  2035d4:	e8 03 00 00 00       	call   2035dc <memory::paging::page_directory_entry::set_flag(memory::paging::pt_flag, bool)>
  2035d9:	90                   	nop
  2035da:	c9                   	leave  
  2035db:	c3                   	ret    

00000000002035dc <memory::paging::page_directory_entry::set_flag(memory::paging::pt_flag, bool)>:
  2035dc:	55                   	push   rbp
  2035dd:	48 89 e5             	mov    rbp,rsp
  2035e0:	48 83 ec 20          	sub    rsp,0x20
  2035e4:	48 89 7d e8          	mov    QWORD PTR [rbp-0x18],rdi
  2035e8:	89 75 e4             	mov    DWORD PTR [rbp-0x1c],esi
  2035eb:	89 d0                	mov    eax,edx
  2035ed:	88 45 e0             	mov    BYTE PTR [rbp-0x20],al
  2035f0:	8b 45 e4             	mov    eax,DWORD PTR [rbp-0x1c]
  2035f3:	ba 01 00 00 00       	mov    edx,0x1
  2035f8:	89 c1                	mov    ecx,eax
  2035fa:	48 d3 e2             	shl    rdx,cl
  2035fd:	48 89 d0             	mov    rax,rdx
  203600:	48 89 45 f8          	mov    QWORD PTR [rbp-0x8],rax
  203604:	48 8b 45 e8          	mov    rax,QWORD PTR [rbp-0x18]
  203608:	48 8b 10             	mov    rdx,QWORD PTR [rax]
  20360b:	48 8b 45 f8          	mov    rax,QWORD PTR [rbp-0x8]
  20360f:	48 f7 d0             	not    rax
  203612:	48 21 c2             	and    rdx,rax
  203615:	48 8b 45 e8          	mov    rax,QWORD PTR [rbp-0x18]
  203619:	48 89 10             	mov    QWORD PTR [rax],rdx
  20361c:	80 7d e0 00          	cmp    BYTE PTR [rbp-0x20],0x0
  203620:	74 15                	je     203637 <memory::paging::page_directory_entry::set_flag(memory::paging::pt_flag, bool)+0x5b>
  203622:	48 8b 45 e8          	mov    rax,QWORD PTR [rbp-0x18]
  203626:	48 8b 00             	mov    rax,QWORD PTR [rax]
  203629:	48 0b 45 f8          	or     rax,QWORD PTR [rbp-0x8]
  20362d:	48 89 c2             	mov    rdx,rax
  203630:	48 8b 45 e8          	mov    rax,QWORD PTR [rbp-0x18]
  203634:	48 89 10             	mov    QWORD PTR [rax],rdx
  203637:	90                   	nop
  203638:	c9                   	leave  
  203639:	c3                   	ret    

000000000020363a <memory::paging::page_directory_entry::get_flag(memory::paging::pt_flag)>:
  20363a:	55                   	push   rbp
  20363b:	48 89 e5             	mov    rbp,rsp
  20363e:	48 83 ec 20          	sub    rsp,0x20
  203642:	48 89 7d e8          	mov    QWORD PTR [rbp-0x18],rdi
  203646:	89 75 e4             	mov    DWORD PTR [rbp-0x1c],esi
  203649:	8b 45 e4             	mov    eax,DWORD PTR [rbp-0x1c]
  20364c:	ba 01 00 00 00       	mov    edx,0x1
  203651:	89 c1                	mov    ecx,eax
  203653:	48 d3 e2             	shl    rdx,cl
  203656:	48 89 d0             	mov    rax,rdx
  203659:	48 89 45 f8          	mov    QWORD PTR [rbp-0x8],rax
  20365d:	48 8b 45 e8          	mov    rax,QWORD PTR [rbp-0x18]
  203661:	48 8b 00             	mov    rax,QWORD PTR [rax]
  203664:	48 23 45 f8          	and    rax,QWORD PTR [rbp-0x8]
  203668:	48 85 c0             	test   rax,rax
  20366b:	0f 95 c0             	setne  al
  20366e:	c9                   	leave  
  20366f:	c3                   	ret    

0000000000203670 <memory::paging::page_directory_entry::get_address()>:
  203670:	55                   	push   rbp
  203671:	48 89 e5             	mov    rbp,rsp
  203674:	48 83 ec 08          	sub    rsp,0x8
  203678:	48 89 7d f8          	mov    QWORD PTR [rbp-0x8],rdi
  20367c:	48 8b 45 f8          	mov    rax,QWORD PTR [rbp-0x8]
  203680:	48 8b 00             	mov    rax,QWORD PTR [rax]
  203683:	48 ba 00 f0 ff ff ff 	movabs rdx,0xffffffffff000
  20368a:	ff 0f 00 
  20368d:	48 21 d0             	and    rax,rdx
  203690:	c9                   	leave  
  203691:	c3                   	ret    

0000000000203692 <memory::paging::page_directory_entry::set_address(unsigned long)>:
  203692:	55                   	push   rbp
  203693:	48 89 e5             	mov    rbp,rsp
  203696:	48 83 ec 10          	sub    rsp,0x10
  20369a:	48 89 7d f8          	mov    QWORD PTR [rbp-0x8],rdi
  20369e:	48 89 75 f0          	mov    QWORD PTR [rbp-0x10],rsi
  2036a2:	48 b8 ff ff ff ff ff 	movabs rax,0xffffffffff
  2036a9:	00 00 00 
  2036ac:	48 21 45 f0          	and    QWORD PTR [rbp-0x10],rax
  2036b0:	48 8b 45 f8          	mov    rax,QWORD PTR [rbp-0x8]
  2036b4:	48 8b 00             	mov    rax,QWORD PTR [rax]
  2036b7:	48 ba ff 0f 00 00 00 	movabs rdx,0xfff0000000000fff
  2036be:	00 f0 ff 
  2036c1:	48 21 c2             	and    rdx,rax
  2036c4:	48 8b 45 f8          	mov    rax,QWORD PTR [rbp-0x8]
  2036c8:	48 89 10             	mov    QWORD PTR [rax],rdx
  2036cb:	48 8b 45 f8          	mov    rax,QWORD PTR [rbp-0x8]
  2036cf:	48 8b 10             	mov    rdx,QWORD PTR [rax]
  2036d2:	48 8b 45 f0          	mov    rax,QWORD PTR [rbp-0x10]
  2036d6:	48 c1 e0 0c          	shl    rax,0xc
  2036da:	48 09 c2             	or     rdx,rax
  2036dd:	48 8b 45 f8          	mov    rax,QWORD PTR [rbp-0x8]
  2036e1:	48 89 10             	mov    QWORD PTR [rax],rdx
  2036e4:	90                   	nop
  2036e5:	c9                   	leave  
  2036e6:	c3                   	ret    
  2036e7:	90                   	nop

00000000002036e8 <memory::paging::page_directory_entry::set_pat(unsigned char)>:
  2036e8:	55                   	push   rbp
  2036e9:	48 89 e5             	mov    rbp,rsp
  2036ec:	48 83 ec 10          	sub    rsp,0x10
  2036f0:	48 89 7d f8          	mov    QWORD PTR [rbp-0x8],rdi
  2036f4:	89 f0                	mov    eax,esi
  2036f6:	88 45 f4             	mov    BYTE PTR [rbp-0xc],al
  2036f9:	80 65 f4 07          	and    BYTE PTR [rbp-0xc],0x7
  2036fd:	0f b6 45 f4          	movzx  eax,BYTE PTR [rbp-0xc]
  203701:	83 e0 01             	and    eax,0x1
  203704:	85 c0                	test   eax,eax
  203706:	0f 95 c0             	setne  al
  203709:	0f b6 d0             	movzx  edx,al
  20370c:	48 8b 45 f8          	mov    rax,QWORD PTR [rbp-0x8]
  203710:	be 03 00 00 00       	mov    esi,0x3
  203715:	48 89 c7             	mov    rdi,rax
  203718:	e8 bf fe ff ff       	call   2035dc <memory::paging::page_directory_entry::set_flag(memory::paging::pt_flag, bool)>
  20371d:	d0 6d f4             	shr    BYTE PTR [rbp-0xc],1
  203720:	0f b6 45 f4          	movzx  eax,BYTE PTR [rbp-0xc]
  203724:	83 e0 01             	and    eax,0x1
  203727:	85 c0                	test   eax,eax
  203729:	0f 95 c0             	setne  al
  20372c:	0f b6 d0             	movzx  edx,al
  20372f:	48 8b 45 f8          	mov    rax,QWORD PTR [rbp-0x8]
  203733:	be 04 00 00 00       	mov    esi,0x4
  203738:	48 89 c7             	mov    rdi,rax
  20373b:	e8 9c fe ff ff       	call   2035dc <memory::paging::page_directory_entry::set_flag(memory::paging::pt_flag, bool)>
  203740:	d0 6d f4             	shr    BYTE PTR [rbp-0xc],1
  203743:	0f b6 45 f4          	movzx  eax,BYTE PTR [rbp-0xc]
  203747:	83 e0 01             	and    eax,0x1
  20374a:	85 c0                	test   eax,eax
  20374c:	0f 95 c0             	setne  al
  20374f:	0f b6 d0             	movzx  edx,al
  203752:	48 8b 45 f8          	mov    rax,QWORD PTR [rbp-0x8]
  203756:	be 07 00 00 00       	mov    esi,0x7
  20375b:	48 89 c7             	mov    rdi,rax
  20375e:	e8 79 fe ff ff       	call   2035dc <memory::paging::page_directory_entry::set_flag(memory::paging::pt_flag, bool)>
  203763:	90                   	nop
  203764:	c9                   	leave  
  203765:	c3                   	ret    

0000000000203766 <io::outb(unsigned short, unsigned char)>:
  203766:	55                   	push   rbp
  203767:	48 89 e5             	mov    rbp,rsp
  20376a:	48 83 ec 08          	sub    rsp,0x8
  20376e:	89 f8                	mov    eax,edi
  203770:	89 f2                	mov    edx,esi
  203772:	66 89 45 fc          	mov    WORD PTR [rbp-0x4],ax
  203776:	89 d0                	mov    eax,edx
  203778:	88 45 f8             	mov    BYTE PTR [rbp-0x8],al
  20377b:	0f b6 45 f8          	movzx  eax,BYTE PTR [rbp-0x8]
  20377f:	0f b7 55 fc          	movzx  edx,WORD PTR [rbp-0x4]
  203783:	ee                   	out    dx,al
  203784:	90                   	nop
  203785:	c9                   	leave  
  203786:	c3                   	ret    

0000000000203787 <io::pit::pit_init()>:
  203787:	55                   	push   rbp
  203788:	48 89 e5             	mov    rbp,rsp
  20378b:	bf 00 00 00 00       	mov    edi,0x0
  203790:	e8 b8 07 00 00       	call   203f4d <irq_unmask>
  203795:	90                   	nop
  203796:	5d                   	pop    rbp
  203797:	c3                   	ret    

0000000000203798 <io::pit::set_c0_frequency(unsigned int)>:
  203798:	55                   	push   rbp
  203799:	48 89 e5             	mov    rbp,rsp
  20379c:	48 83 ec 08          	sub    rsp,0x8
  2037a0:	89 7d fc             	mov    DWORD PTR [rbp-0x4],edi
  2037a3:	fa                   	cli    
  2037a4:	8b 45 fc             	mov    eax,DWORD PTR [rbp-0x4]
  2037a7:	89 05 6f c9 00 00    	mov    DWORD PTR [rip+0xc96f],eax        # 21011c <io::pit::frequency_hz>
  2037ad:	b8 de 34 12 00       	mov    eax,0x1234de
  2037b2:	ba 00 00 00 00       	mov    edx,0x0
  2037b7:	f7 75 fc             	div    DWORD PTR [rbp-0x4]
  2037ba:	66 89 05 57 c9 00 00 	mov    WORD PTR [rip+0xc957],ax        # 210118 <io::pit::divisor>
  2037c1:	be 34 00 00 00       	mov    esi,0x34
  2037c6:	bf 43 00 00 00       	mov    edi,0x43
  2037cb:	e8 96 ff ff ff       	call   203766 <io::outb(unsigned short, unsigned char)>
  2037d0:	0f b7 05 41 c9 00 00 	movzx  eax,WORD PTR [rip+0xc941]        # 210118 <io::pit::divisor>
  2037d7:	0f b6 c0             	movzx  eax,al
  2037da:	89 c6                	mov    esi,eax
  2037dc:	bf 40 00 00 00       	mov    edi,0x40
  2037e1:	e8 80 ff ff ff       	call   203766 <io::outb(unsigned short, unsigned char)>
  2037e6:	0f b7 05 2b c9 00 00 	movzx  eax,WORD PTR [rip+0xc92b]        # 210118 <io::pit::divisor>
  2037ed:	66 c1 e8 08          	shr    ax,0x8
  2037f1:	0f b6 c0             	movzx  eax,al
  2037f4:	89 c6                	mov    esi,eax
  2037f6:	bf 40 00 00 00       	mov    edi,0x40
  2037fb:	e8 66 ff ff ff       	call   203766 <io::outb(unsigned short, unsigned char)>
  203800:	fb                   	sti    
  203801:	90                   	nop
  203802:	c9                   	leave  
  203803:	c3                   	ret    

0000000000203804 <io::pit::set_c2_frequency(unsigned int)>:
  203804:	55                   	push   rbp
  203805:	48 89 e5             	mov    rbp,rsp
  203808:	48 83 ec 08          	sub    rsp,0x8
  20380c:	89 7d fc             	mov    DWORD PTR [rbp-0x4],edi
  20380f:	fa                   	cli    
  203810:	8b 45 fc             	mov    eax,DWORD PTR [rbp-0x4]
  203813:	89 05 0b c9 00 00    	mov    DWORD PTR [rip+0xc90b],eax        # 210124 <io::pit::c2_frequency_hz>
  203819:	b8 de 34 12 00       	mov    eax,0x1234de
  20381e:	ba 00 00 00 00       	mov    edx,0x0
  203823:	f7 75 fc             	div    DWORD PTR [rbp-0x4]
  203826:	66 89 05 f3 c8 00 00 	mov    WORD PTR [rip+0xc8f3],ax        # 210120 <io::pit::c2_divisor>
  20382d:	be b6 00 00 00       	mov    esi,0xb6
  203832:	bf 43 00 00 00       	mov    edi,0x43
  203837:	e8 2a ff ff ff       	call   203766 <io::outb(unsigned short, unsigned char)>
  20383c:	0f b7 05 d5 c8 00 00 	movzx  eax,WORD PTR [rip+0xc8d5]        # 210118 <io::pit::divisor>
  203843:	0f b6 c0             	movzx  eax,al
  203846:	89 c6                	mov    esi,eax
  203848:	bf 42 00 00 00       	mov    edi,0x42
  20384d:	e8 14 ff ff ff       	call   203766 <io::outb(unsigned short, unsigned char)>
  203852:	0f b7 05 bf c8 00 00 	movzx  eax,WORD PTR [rip+0xc8bf]        # 210118 <io::pit::divisor>
  203859:	66 c1 e8 08          	shr    ax,0x8
  20385d:	0f b6 c0             	movzx  eax,al
  203860:	89 c6                	mov    esi,eax
  203862:	bf 42 00 00 00       	mov    edi,0x42
  203867:	e8 fa fe ff ff       	call   203766 <io::outb(unsigned short, unsigned char)>
  20386c:	fb                   	sti    
  20386d:	90                   	nop
  20386e:	c9                   	leave  
  20386f:	c3                   	ret    

0000000000203870 <sys_keyboard_event_subscribe>:
  203870:	55                   	push   rbp
  203871:	48 89 e5             	mov    rbp,rsp
  203874:	48 83 ec 10          	sub    rsp,0x10
  203878:	48 89 7d f8          	mov    QWORD PTR [rbp-0x8],rdi
  20387c:	48 8b 45 f8          	mov    rax,QWORD PTR [rbp-0x8]
  203880:	48 89 c7             	mov    rdi,rax
  203883:	e8 57 45 00 00       	call   207ddf <io::keyboard::keyboard_event_subscribe(void (*)(io::keyboard::keyboard_packet))>
  203888:	90                   	nop
  203889:	c9                   	leave  
  20388a:	c3                   	ret    

000000000020388b <sys_copy_framebuffer>:
  20388b:	55                   	push   rbp
  20388c:	48 89 e5             	mov    rbp,rsp
  20388f:	48 83 ec 10          	sub    rsp,0x10
  203893:	48 89 7d f8          	mov    QWORD PTR [rbp-0x8],rdi
  203897:	48 c7 c0 c0 01 21 00 	mov    rax,0x2101c0
  20389e:	0f b7 40 08          	movzx  eax,WORD PTR [rax+0x8]
  2038a2:	0f b7 d0             	movzx  edx,ax
  2038a5:	48 c7 c0 c0 01 21 00 	mov    rax,0x2101c0
  2038ac:	0f b7 40 0a          	movzx  eax,WORD PTR [rax+0xa]
  2038b0:	0f b7 c0             	movzx  eax,ax
  2038b3:	0f af d0             	imul   edx,eax
  2038b6:	48 c7 c0 c0 01 21 00 	mov    rax,0x2101c0
  2038bd:	0f b7 40 0c          	movzx  eax,WORD PTR [rax+0xc]
  2038c1:	0f b7 c0             	movzx  eax,ax
  2038c4:	0f af c2             	imul   eax,edx
  2038c7:	48 63 d0             	movsxd rdx,eax
  2038ca:	48 c7 c0 c0 01 21 00 	mov    rax,0x2101c0
  2038d1:	48 8b 00             	mov    rax,QWORD PTR [rax]
  2038d4:	48 89 c1             	mov    rcx,rax
  2038d7:	48 8b 45 f8          	mov    rax,QWORD PTR [rbp-0x8]
  2038db:	48 89 c6             	mov    rsi,rax
  2038de:	48 89 cf             	mov    rdi,rcx
  2038e1:	e8 63 f6 ff ff       	call   202f49 <memory::operations::memcpy(void*, void const*, unsigned long)>
  2038e6:	90                   	nop
  2038e7:	c9                   	leave  
  2038e8:	c3                   	ret    

00000000002038e9 <sys_get_info>:
  2038e9:	55                   	push   rbp
  2038ea:	48 89 e5             	mov    rbp,rsp
  2038ed:	48 83 ec 08          	sub    rsp,0x8
  2038f1:	89 f8                	mov    eax,edi
  2038f3:	88 45 fc             	mov    BYTE PTR [rbp-0x4],al
  2038f6:	0f b6 45 fc          	movzx  eax,BYTE PTR [rbp-0x4]
  2038fa:	85 c0                	test   eax,eax
  2038fc:	74 07                	je     203905 <sys_get_info+0x1c>
  2038fe:	83 f8 01             	cmp    eax,0x1
  203901:	74 0e                	je     203911 <sys_get_info+0x28>
  203903:	eb 18                	jmp    20391d <sys_get_info+0x34>
  203905:	48 c7 c0 e0 00 21 00 	mov    rax,0x2100e0
  20390c:	48 8b 00             	mov    rax,QWORD PTR [rax]
  20390f:	eb 11                	jmp    203922 <sys_get_info+0x39>
  203911:	48 c7 c0 d0 00 21 00 	mov    rax,0x2100d0
  203918:	48 8b 00             	mov    rax,QWORD PTR [rax]
  20391b:	eb 05                	jmp    203922 <sys_get_info+0x39>
  20391d:	b8 00 00 00 00       	mov    eax,0x0
  203922:	c9                   	leave  
  203923:	c3                   	ret    

0000000000203924 <sys_tty_print>:
  203924:	55                   	push   rbp
  203925:	48 89 e5             	mov    rbp,rsp
  203928:	48 83 ec 10          	sub    rsp,0x10
  20392c:	48 89 7d f8          	mov    QWORD PTR [rbp-0x8],rdi
  203930:	48 8b 45 f8          	mov    rax,QWORD PTR [rbp-0x8]
  203934:	48 89 c7             	mov    rdi,rax
  203937:	e8 25 14 00 00       	call   204d61 <io::tty::write(char const*)>
  20393c:	90                   	nop
  20393d:	c9                   	leave  
  20393e:	c3                   	ret    

000000000020393f <sys_allocate_page>:
  20393f:	55                   	push   rbp
  203940:	48 89 e5             	mov    rbp,rsp
  203943:	48 83 ec 10          	sub    rsp,0x10
  203947:	e8 7d f3 ff ff       	call   202cc9 <request_page>
  20394c:	48 89 45 f8          	mov    QWORD PTR [rbp-0x8],rax
  203950:	48 8b 45 f8          	mov    rax,QWORD PTR [rbp-0x8]
  203954:	48 89 c7             	mov    rdi,rax
  203957:	e8 5c fb ff ff       	call   2034b8 <donate_to_userspace>
  20395c:	48 8b 45 f8          	mov    rax,QWORD PTR [rbp-0x8]
  203960:	c9                   	leave  
  203961:	c3                   	ret    

0000000000203962 <util::bitmap::operator[](unsigned long)>:
  203962:	55                   	push   rbp
  203963:	48 89 e5             	mov    rbp,rsp
  203966:	48 83 ec 10          	sub    rsp,0x10
  20396a:	48 89 7d f8          	mov    QWORD PTR [rbp-0x8],rdi
  20396e:	48 89 75 f0          	mov    QWORD PTR [rbp-0x10],rsi
  203972:	48 8b 55 f0          	mov    rdx,QWORD PTR [rbp-0x10]
  203976:	48 8b 45 f8          	mov    rax,QWORD PTR [rbp-0x8]
  20397a:	48 89 d6             	mov    rsi,rdx
  20397d:	48 89 c7             	mov    rdi,rax
  203980:	e8 03 00 00 00       	call   203988 <util::bitmap::get(unsigned long)>
  203985:	c9                   	leave  
  203986:	c3                   	ret    
  203987:	90                   	nop

0000000000203988 <util::bitmap::get(unsigned long)>:
  203988:	55                   	push   rbp
  203989:	48 89 e5             	mov    rbp,rsp
  20398c:	48 83 ec 20          	sub    rsp,0x20
  203990:	48 89 7d e8          	mov    QWORD PTR [rbp-0x18],rdi
  203994:	48 89 75 e0          	mov    QWORD PTR [rbp-0x20],rsi
  203998:	48 8b 45 e0          	mov    rax,QWORD PTR [rbp-0x20]
  20399c:	48 c1 e8 03          	shr    rax,0x3
  2039a0:	48 89 45 f8          	mov    QWORD PTR [rbp-0x8],rax
  2039a4:	48 8b 45 e0          	mov    rax,QWORD PTR [rbp-0x20]
  2039a8:	83 e0 07             	and    eax,0x7
  2039ab:	88 45 f7             	mov    BYTE PTR [rbp-0x9],al
  2039ae:	0f b6 45 f7          	movzx  eax,BYTE PTR [rbp-0x9]
  2039b2:	ba 80 00 00 00       	mov    edx,0x80
  2039b7:	89 c1                	mov    ecx,eax
  2039b9:	d3 fa                	sar    edx,cl
  2039bb:	89 d0                	mov    eax,edx
  2039bd:	88 45 f6             	mov    BYTE PTR [rbp-0xa],al
  2039c0:	48 8b 45 e8          	mov    rax,QWORD PTR [rbp-0x18]
  2039c4:	48 8b 50 08          	mov    rdx,QWORD PTR [rax+0x8]
  2039c8:	48 8b 45 f8          	mov    rax,QWORD PTR [rbp-0x8]
  2039cc:	48 01 d0             	add    rax,rdx
  2039cf:	0f b6 00             	movzx  eax,BYTE PTR [rax]
  2039d2:	22 45 f6             	and    al,BYTE PTR [rbp-0xa]
  2039d5:	84 c0                	test   al,al
  2039d7:	0f 95 c0             	setne  al
  2039da:	c9                   	leave  
  2039db:	c3                   	ret    

00000000002039dc <util::bitmap::set(unsigned long, bool)>:
  2039dc:	55                   	push   rbp
  2039dd:	48 89 e5             	mov    rbp,rsp
  2039e0:	48 83 ec 28          	sub    rsp,0x28
  2039e4:	48 89 7d e8          	mov    QWORD PTR [rbp-0x18],rdi
  2039e8:	48 89 75 e0          	mov    QWORD PTR [rbp-0x20],rsi
  2039ec:	89 d0                	mov    eax,edx
  2039ee:	88 45 dc             	mov    BYTE PTR [rbp-0x24],al
  2039f1:	48 8b 45 e0          	mov    rax,QWORD PTR [rbp-0x20]
  2039f5:	48 c1 e8 03          	shr    rax,0x3
  2039f9:	48 89 45 f8          	mov    QWORD PTR [rbp-0x8],rax
  2039fd:	48 8b 45 e0          	mov    rax,QWORD PTR [rbp-0x20]
  203a01:	83 e0 07             	and    eax,0x7
  203a04:	88 45 f7             	mov    BYTE PTR [rbp-0x9],al
  203a07:	0f b6 45 f7          	movzx  eax,BYTE PTR [rbp-0x9]
  203a0b:	ba 80 00 00 00       	mov    edx,0x80
  203a10:	89 c1                	mov    ecx,eax
  203a12:	d3 fa                	sar    edx,cl
  203a14:	89 d0                	mov    eax,edx
  203a16:	88 45 f6             	mov    BYTE PTR [rbp-0xa],al
  203a19:	48 8b 45 e8          	mov    rax,QWORD PTR [rbp-0x18]
  203a1d:	48 8b 50 08          	mov    rdx,QWORD PTR [rax+0x8]
  203a21:	48 8b 45 f8          	mov    rax,QWORD PTR [rbp-0x8]
  203a25:	48 01 d0             	add    rax,rdx
  203a28:	0f b6 00             	movzx  eax,BYTE PTR [rax]
  203a2b:	89 c2                	mov    edx,eax
  203a2d:	0f b6 45 f6          	movzx  eax,BYTE PTR [rbp-0xa]
  203a31:	f7 d0                	not    eax
  203a33:	89 d1                	mov    ecx,edx
  203a35:	21 c1                	and    ecx,eax
  203a37:	48 8b 45 e8          	mov    rax,QWORD PTR [rbp-0x18]
  203a3b:	48 8b 50 08          	mov    rdx,QWORD PTR [rax+0x8]
  203a3f:	48 8b 45 f8          	mov    rax,QWORD PTR [rbp-0x8]
  203a43:	48 01 d0             	add    rax,rdx
  203a46:	89 ca                	mov    edx,ecx
  203a48:	88 10                	mov    BYTE PTR [rax],dl
  203a4a:	80 7d dc 00          	cmp    BYTE PTR [rbp-0x24],0x0
  203a4e:	74 26                	je     203a76 <util::bitmap::set(unsigned long, bool)+0x9a>
  203a50:	48 8b 45 e8          	mov    rax,QWORD PTR [rbp-0x18]
  203a54:	48 8b 50 08          	mov    rdx,QWORD PTR [rax+0x8]
  203a58:	48 8b 45 f8          	mov    rax,QWORD PTR [rbp-0x8]
  203a5c:	48 01 d0             	add    rax,rdx
  203a5f:	0f b6 00             	movzx  eax,BYTE PTR [rax]
  203a62:	48 8b 55 e8          	mov    rdx,QWORD PTR [rbp-0x18]
  203a66:	48 8b 4a 08          	mov    rcx,QWORD PTR [rdx+0x8]
  203a6a:	48 8b 55 f8          	mov    rdx,QWORD PTR [rbp-0x8]
  203a6e:	48 01 ca             	add    rdx,rcx
  203a71:	0a 45 f6             	or     al,BYTE PTR [rbp-0xa]
  203a74:	88 02                	mov    BYTE PTR [rdx],al
  203a76:	90                   	nop
  203a77:	c9                   	leave  
  203a78:	c3                   	ret    

0000000000203a79 <util::itoa(long, int)>:
  203a79:	55                   	push   rbp
  203a7a:	48 89 e5             	mov    rbp,rsp
  203a7d:	48 83 ec 20          	sub    rsp,0x20
  203a81:	48 89 7d e8          	mov    QWORD PTR [rbp-0x18],rdi
  203a85:	89 75 e4             	mov    DWORD PTR [rbp-0x1c],esi
  203a88:	48 c7 45 f8 3c 00 00 	mov    QWORD PTR [rbp-0x8],0x3c
  203a8f:	00 
  203a90:	48 83 7d e8 00       	cmp    QWORD PTR [rbp-0x18],0x0
  203a95:	74 4b                	je     203ae2 <util::itoa(long, int)+0x69>
  203a97:	48 83 7d f8 00       	cmp    QWORD PTR [rbp-0x8],0x0
  203a9c:	74 44                	je     203ae2 <util::itoa(long, int)+0x69>
  203a9e:	8b 45 e4             	mov    eax,DWORD PTR [rbp-0x1c]
  203aa1:	48 63 c8             	movsxd rcx,eax
  203aa4:	48 8b 45 e8          	mov    rax,QWORD PTR [rbp-0x18]
  203aa8:	48 99                	cqo    
  203aaa:	48 f7 f9             	idiv   rcx
  203aad:	48 8d 05 f8 6b 00 00 	lea    rax,[rip+0x6bf8]        # 20a6ac <BASE_GRAN+0x684>
  203ab4:	0f b6 04 02          	movzx  eax,BYTE PTR [rdx+rax*1]
  203ab8:	48 8d 0d 81 c6 00 00 	lea    rcx,[rip+0xc681]        # 210140 <util::itoa(long, int)::buf>
  203abf:	48 8b 55 f8          	mov    rdx,QWORD PTR [rbp-0x8]
  203ac3:	48 01 ca             	add    rdx,rcx
  203ac6:	88 02                	mov    BYTE PTR [rdx],al
  203ac8:	48 83 6d f8 01       	sub    QWORD PTR [rbp-0x8],0x1
  203acd:	8b 45 e4             	mov    eax,DWORD PTR [rbp-0x1c]
  203ad0:	48 63 f0             	movsxd rsi,eax
  203ad3:	48 8b 45 e8          	mov    rax,QWORD PTR [rbp-0x18]
  203ad7:	48 99                	cqo    
  203ad9:	48 f7 fe             	idiv   rsi
  203adc:	48 89 45 e8          	mov    QWORD PTR [rbp-0x18],rax
  203ae0:	eb ae                	jmp    203a90 <util::itoa(long, int)+0x17>
  203ae2:	48 8b 45 f8          	mov    rax,QWORD PTR [rbp-0x8]
  203ae6:	48 8d 50 01          	lea    rdx,[rax+0x1]
  203aea:	48 8d 05 4f c6 00 00 	lea    rax,[rip+0xc64f]        # 210140 <util::itoa(long, int)::buf>
  203af1:	48 01 d0             	add    rax,rdx
  203af4:	c9                   	leave  
  203af5:	c3                   	ret    

0000000000203af6 <util::strcomp(char const*, char const*)>:
  203af6:	55                   	push   rbp
  203af7:	48 89 e5             	mov    rbp,rsp
  203afa:	48 83 ec 10          	sub    rsp,0x10
  203afe:	48 89 7d f8          	mov    QWORD PTR [rbp-0x8],rdi
  203b02:	48 89 75 f0          	mov    QWORD PTR [rbp-0x10],rsi
  203b06:	48 8b 45 f8          	mov    rax,QWORD PTR [rbp-0x8]
  203b0a:	0f b6 00             	movzx  eax,BYTE PTR [rax]
  203b0d:	84 c0                	test   al,al
  203b0f:	74 25                	je     203b36 <util::strcomp(char const*, char const*)+0x40>
  203b11:	48 8b 45 f8          	mov    rax,QWORD PTR [rbp-0x8]
  203b15:	0f b6 10             	movzx  edx,BYTE PTR [rax]
  203b18:	48 8b 45 f0          	mov    rax,QWORD PTR [rbp-0x10]
  203b1c:	0f b6 00             	movzx  eax,BYTE PTR [rax]
  203b1f:	38 c2                	cmp    dl,al
  203b21:	74 07                	je     203b2a <util::strcomp(char const*, char const*)+0x34>
  203b23:	b8 00 00 00 00       	mov    eax,0x0
  203b28:	eb 11                	jmp    203b3b <util::strcomp(char const*, char const*)+0x45>
  203b2a:	48 83 45 f0 01       	add    QWORD PTR [rbp-0x10],0x1
  203b2f:	48 83 45 f8 01       	add    QWORD PTR [rbp-0x8],0x1
  203b34:	eb d0                	jmp    203b06 <util::strcomp(char const*, char const*)+0x10>
  203b36:	b8 01 00 00 00       	mov    eax,0x1
  203b3b:	c9                   	leave  
  203b3c:	c3                   	ret    

0000000000203b3d <util::strlen(char const*)>:
  203b3d:	55                   	push   rbp
  203b3e:	48 89 e5             	mov    rbp,rsp
  203b41:	48 83 ec 18          	sub    rsp,0x18
  203b45:	48 89 7d e8          	mov    QWORD PTR [rbp-0x18],rdi
  203b49:	48 c7 45 f8 00 00 00 	mov    QWORD PTR [rbp-0x8],0x0
  203b50:	00 
  203b51:	48 8b 55 e8          	mov    rdx,QWORD PTR [rbp-0x18]
  203b55:	48 8b 45 f8          	mov    rax,QWORD PTR [rbp-0x8]
  203b59:	48 01 d0             	add    rax,rdx
  203b5c:	0f b6 00             	movzx  eax,BYTE PTR [rax]
  203b5f:	84 c0                	test   al,al
  203b61:	74 19                	je     203b7c <util::strlen(char const*)+0x3f>
  203b63:	48 8b 55 e8          	mov    rdx,QWORD PTR [rbp-0x18]
  203b67:	48 8b 45 f8          	mov    rax,QWORD PTR [rbp-0x8]
  203b6b:	48 01 d0             	add    rax,rdx
  203b6e:	0f b6 00             	movzx  eax,BYTE PTR [rax]
  203b71:	84 c0                	test   al,al
  203b73:	74 07                	je     203b7c <util::strlen(char const*)+0x3f>
  203b75:	48 83 45 f8 01       	add    QWORD PTR [rbp-0x8],0x1
  203b7a:	eb d5                	jmp    203b51 <util::strlen(char const*)+0x14>
  203b7c:	48 8b 45 f8          	mov    rax,QWORD PTR [rbp-0x8]
  203b80:	c9                   	leave  
  203b81:	c3                   	ret    

0000000000203b82 <util::strcat(char*, char const*)>:
  203b82:	55                   	push   rbp
  203b83:	48 89 e5             	mov    rbp,rsp
  203b86:	48 83 ec 20          	sub    rsp,0x20
  203b8a:	48 89 7d e8          	mov    QWORD PTR [rbp-0x18],rdi
  203b8e:	48 89 75 e0          	mov    QWORD PTR [rbp-0x20],rsi
  203b92:	48 8b 45 e8          	mov    rax,QWORD PTR [rbp-0x18]
  203b96:	48 89 45 f8          	mov    QWORD PTR [rbp-0x8],rax
  203b9a:	48 8b 45 f8          	mov    rax,QWORD PTR [rbp-0x8]
  203b9e:	0f b6 00             	movzx  eax,BYTE PTR [rax]
  203ba1:	84 c0                	test   al,al
  203ba3:	74 07                	je     203bac <util::strcat(char*, char const*)+0x2a>
  203ba5:	48 83 45 f8 01       	add    QWORD PTR [rbp-0x8],0x1
  203baa:	eb ee                	jmp    203b9a <util::strcat(char*, char const*)+0x18>
  203bac:	48 8b 45 e0          	mov    rax,QWORD PTR [rbp-0x20]
  203bb0:	0f b6 00             	movzx  eax,BYTE PTR [rax]
  203bb3:	84 c0                	test   al,al
  203bb5:	74 19                	je     203bd0 <util::strcat(char*, char const*)+0x4e>
  203bb7:	48 8b 45 e0          	mov    rax,QWORD PTR [rbp-0x20]
  203bbb:	0f b6 10             	movzx  edx,BYTE PTR [rax]
  203bbe:	48 8b 45 f8          	mov    rax,QWORD PTR [rbp-0x8]
  203bc2:	88 10                	mov    BYTE PTR [rax],dl
  203bc4:	48 83 45 f8 01       	add    QWORD PTR [rbp-0x8],0x1
  203bc9:	48 83 45 e0 01       	add    QWORD PTR [rbp-0x20],0x1
  203bce:	eb dc                	jmp    203bac <util::strcat(char*, char const*)+0x2a>
  203bd0:	48 8b 45 f8          	mov    rax,QWORD PTR [rbp-0x8]
  203bd4:	c6 00 00             	mov    BYTE PTR [rax],0x0
  203bd7:	48 8b 45 e8          	mov    rax,QWORD PTR [rbp-0x18]
  203bdb:	c9                   	leave  
  203bdc:	c3                   	ret    

0000000000203bdd <util::strcpy(char*, char const*)>:
  203bdd:	55                   	push   rbp
  203bde:	48 89 e5             	mov    rbp,rsp
  203be1:	48 83 ec 20          	sub    rsp,0x20
  203be5:	48 89 7d e8          	mov    QWORD PTR [rbp-0x18],rdi
  203be9:	48 89 75 e0          	mov    QWORD PTR [rbp-0x20],rsi
  203bed:	48 8b 45 e8          	mov    rax,QWORD PTR [rbp-0x18]
  203bf1:	48 89 45 f8          	mov    QWORD PTR [rbp-0x8],rax
  203bf5:	48 8b 45 e0          	mov    rax,QWORD PTR [rbp-0x20]
  203bf9:	0f b6 10             	movzx  edx,BYTE PTR [rax]
  203bfc:	48 8b 45 e8          	mov    rax,QWORD PTR [rbp-0x18]
  203c00:	88 10                	mov    BYTE PTR [rax],dl
  203c02:	48 8b 45 e8          	mov    rax,QWORD PTR [rbp-0x18]
  203c06:	0f b6 00             	movzx  eax,BYTE PTR [rax]
  203c09:	84 c0                	test   al,al
  203c0b:	0f 95 c0             	setne  al
  203c0e:	84 c0                	test   al,al
  203c10:	74 0c                	je     203c1e <util::strcpy(char*, char const*)+0x41>
  203c12:	48 83 45 e0 01       	add    QWORD PTR [rbp-0x20],0x1
  203c17:	48 83 45 e8 01       	add    QWORD PTR [rbp-0x18],0x1
  203c1c:	eb d7                	jmp    203bf5 <util::strcpy(char*, char const*)+0x18>
  203c1e:	48 8b 45 f8          	mov    rax,QWORD PTR [rbp-0x8]
  203c22:	c9                   	leave  
  203c23:	c3                   	ret    

0000000000203c24 <util::isdigit(char)>:
  203c24:	55                   	push   rbp
  203c25:	48 89 e5             	mov    rbp,rsp
  203c28:	48 83 ec 08          	sub    rsp,0x8
  203c2c:	89 f8                	mov    eax,edi
  203c2e:	88 45 fc             	mov    BYTE PTR [rbp-0x4],al
  203c31:	80 7d fc 2f          	cmp    BYTE PTR [rbp-0x4],0x2f
  203c35:	7e 0d                	jle    203c44 <util::isdigit(char)+0x20>
  203c37:	80 7d fc 39          	cmp    BYTE PTR [rbp-0x4],0x39
  203c3b:	7f 07                	jg     203c44 <util::isdigit(char)+0x20>
  203c3d:	b8 01 00 00 00       	mov    eax,0x1
  203c42:	eb 05                	jmp    203c49 <util::isdigit(char)+0x25>
  203c44:	b8 00 00 00 00       	mov    eax,0x0
  203c49:	0f b6 c0             	movzx  eax,al
  203c4c:	c9                   	leave  
  203c4d:	c3                   	ret    

0000000000203c4e <io::outb(unsigned short, unsigned char)>:
  203c4e:	55                   	push   rbp
  203c4f:	48 89 e5             	mov    rbp,rsp
  203c52:	48 83 ec 08          	sub    rsp,0x8
  203c56:	89 f8                	mov    eax,edi
  203c58:	89 f2                	mov    edx,esi
  203c5a:	66 89 45 fc          	mov    WORD PTR [rbp-0x4],ax
  203c5e:	89 d0                	mov    eax,edx
  203c60:	88 45 f8             	mov    BYTE PTR [rbp-0x8],al
  203c63:	0f b6 45 f8          	movzx  eax,BYTE PTR [rbp-0x8]
  203c67:	0f b7 55 fc          	movzx  edx,WORD PTR [rbp-0x4]
  203c6b:	ee                   	out    dx,al
  203c6c:	90                   	nop
  203c6d:	c9                   	leave  
  203c6e:	c3                   	ret    

0000000000203c6f <io::inb(unsigned short)>:
  203c6f:	55                   	push   rbp
  203c70:	48 89 e5             	mov    rbp,rsp
  203c73:	48 83 ec 18          	sub    rsp,0x18
  203c77:	89 f8                	mov    eax,edi
  203c79:	66 89 45 ec          	mov    WORD PTR [rbp-0x14],ax
  203c7d:	0f b7 45 ec          	movzx  eax,WORD PTR [rbp-0x14]
  203c81:	89 c2                	mov    edx,eax
  203c83:	ec                   	in     al,dx
  203c84:	88 45 ff             	mov    BYTE PTR [rbp-0x1],al
  203c87:	0f b6 45 ff          	movzx  eax,BYTE PTR [rbp-0x1]
  203c8b:	c9                   	leave  
  203c8c:	c3                   	ret    

0000000000203c8d <sys::audio::pcspk::init()>:
  203c8d:	55                   	push   rbp
  203c8e:	48 89 e5             	mov    rbp,rsp
  203c91:	bf 61 00 00 00       	mov    edi,0x61
  203c96:	e8 d4 ff ff ff       	call   203c6f <io::inb(unsigned short)>
  203c9b:	83 c8 01             	or     eax,0x1
  203c9e:	0f b6 c0             	movzx  eax,al
  203ca1:	89 c6                	mov    esi,eax
  203ca3:	bf 61 00 00 00       	mov    edi,0x61
  203ca8:	e8 a1 ff ff ff       	call   203c4e <io::outb(unsigned short, unsigned char)>
  203cad:	90                   	nop
  203cae:	5d                   	pop    rbp
  203caf:	c3                   	ret    

0000000000203cb0 <sys::audio::pcspk::play_sound(unsigned int)>:
  203cb0:	55                   	push   rbp
  203cb1:	48 89 e5             	mov    rbp,rsp
  203cb4:	48 83 ec 20          	sub    rsp,0x20
  203cb8:	89 7d ec             	mov    DWORD PTR [rbp-0x14],edi
  203cbb:	8b 45 ec             	mov    eax,DWORD PTR [rbp-0x14]
  203cbe:	89 c7                	mov    edi,eax
  203cc0:	e8 3f fb ff ff       	call   203804 <io::pit::set_c2_frequency(unsigned int)>
  203cc5:	bf 61 00 00 00       	mov    edi,0x61
  203cca:	e8 a0 ff ff ff       	call   203c6f <io::inb(unsigned short)>
  203ccf:	88 45 ff             	mov    BYTE PTR [rbp-0x1],al
  203cd2:	0f b6 45 ff          	movzx  eax,BYTE PTR [rbp-0x1]
  203cd6:	83 c8 03             	or     eax,0x3
  203cd9:	38 45 ff             	cmp    BYTE PTR [rbp-0x1],al
  203cdc:	74 16                	je     203cf4 <sys::audio::pcspk::play_sound(unsigned int)+0x44>
  203cde:	0f b6 45 ff          	movzx  eax,BYTE PTR [rbp-0x1]
  203ce2:	83 c8 03             	or     eax,0x3
  203ce5:	0f b6 c0             	movzx  eax,al
  203ce8:	89 c6                	mov    esi,eax
  203cea:	bf 61 00 00 00       	mov    edi,0x61
  203cef:	e8 5a ff ff ff       	call   203c4e <io::outb(unsigned short, unsigned char)>
  203cf4:	90                   	nop
  203cf5:	c9                   	leave  
  203cf6:	c3                   	ret    

0000000000203cf7 <sys::audio::pcspk::stop_sound()>:
  203cf7:	55                   	push   rbp
  203cf8:	48 89 e5             	mov    rbp,rsp
  203cfb:	48 83 ec 10          	sub    rsp,0x10
  203cff:	bf 61 00 00 00       	mov    edi,0x61
  203d04:	e8 66 ff ff ff       	call   203c6f <io::inb(unsigned short)>
  203d09:	83 e0 fc             	and    eax,0xfffffffc
  203d0c:	88 45 ff             	mov    BYTE PTR [rbp-0x1],al
  203d0f:	0f b6 45 ff          	movzx  eax,BYTE PTR [rbp-0x1]
  203d13:	89 c6                	mov    esi,eax
  203d15:	bf 61 00 00 00       	mov    edi,0x61
  203d1a:	e8 2f ff ff ff       	call   203c4e <io::outb(unsigned short, unsigned char)>
  203d1f:	90                   	nop
  203d20:	c9                   	leave  
  203d21:	c3                   	ret    

0000000000203d22 <sys::audio::pcspk::beep()>:
  203d22:	55                   	push   rbp
  203d23:	48 89 e5             	mov    rbp,rsp
  203d26:	bf e8 03 00 00       	mov    edi,0x3e8
  203d2b:	e8 80 ff ff ff       	call   203cb0 <sys::audio::pcspk::play_sound(unsigned int)>
  203d30:	bf 0a 00 00 00       	mov    edi,0xa
  203d35:	e8 d6 49 00 00       	call   208710 <sleep>
  203d3a:	e8 b8 ff ff ff       	call   203cf7 <sys::audio::pcspk::stop_sound()>
  203d3f:	bf 01 00 00 00       	mov    edi,0x1
  203d44:	e8 bb fa ff ff       	call   203804 <io::pit::set_c2_frequency(unsigned int)>
  203d49:	90                   	nop
  203d4a:	5d                   	pop    rbp
  203d4b:	c3                   	ret    

0000000000203d4c <sys::audio::pcspk::beep(unsigned int, unsigned int)>:
  203d4c:	55                   	push   rbp
  203d4d:	48 89 e5             	mov    rbp,rsp
  203d50:	48 83 ec 10          	sub    rsp,0x10
  203d54:	89 7d fc             	mov    DWORD PTR [rbp-0x4],edi
  203d57:	89 75 f8             	mov    DWORD PTR [rbp-0x8],esi
  203d5a:	8b 45 fc             	mov    eax,DWORD PTR [rbp-0x4]
  203d5d:	89 c7                	mov    edi,eax
  203d5f:	e8 4c ff ff ff       	call   203cb0 <sys::audio::pcspk::play_sound(unsigned int)>
  203d64:	8b 45 f8             	mov    eax,DWORD PTR [rbp-0x8]
  203d67:	48 89 c7             	mov    rdi,rax
  203d6a:	e8 a1 49 00 00       	call   208710 <sleep>
  203d6f:	e8 83 ff ff ff       	call   203cf7 <sys::audio::pcspk::stop_sound()>
  203d74:	bf 01 00 00 00       	mov    edi,0x1
  203d79:	e8 86 fa ff ff       	call   203804 <io::pit::set_c2_frequency(unsigned int)>
  203d7e:	90                   	nop
  203d7f:	c9                   	leave  
  203d80:	c3                   	ret    

0000000000203d81 <io::outb(unsigned short, unsigned char)>:
  203d81:	55                   	push   rbp
  203d82:	48 89 e5             	mov    rbp,rsp
  203d85:	48 83 ec 08          	sub    rsp,0x8
  203d89:	89 f8                	mov    eax,edi
  203d8b:	89 f2                	mov    edx,esi
  203d8d:	66 89 45 fc          	mov    WORD PTR [rbp-0x4],ax
  203d91:	89 d0                	mov    eax,edx
  203d93:	88 45 f8             	mov    BYTE PTR [rbp-0x8],al
  203d96:	0f b6 45 f8          	movzx  eax,BYTE PTR [rbp-0x8]
  203d9a:	0f b7 55 fc          	movzx  edx,WORD PTR [rbp-0x4]
  203d9e:	ee                   	out    dx,al
  203d9f:	90                   	nop
  203da0:	c9                   	leave  
  203da1:	c3                   	ret    

0000000000203da2 <io::inb(unsigned short)>:
  203da2:	55                   	push   rbp
  203da3:	48 89 e5             	mov    rbp,rsp
  203da6:	48 83 ec 18          	sub    rsp,0x18
  203daa:	89 f8                	mov    eax,edi
  203dac:	66 89 45 ec          	mov    WORD PTR [rbp-0x14],ax
  203db0:	0f b7 45 ec          	movzx  eax,WORD PTR [rbp-0x14]
  203db4:	89 c2                	mov    edx,eax
  203db6:	ec                   	in     al,dx
  203db7:	88 45 ff             	mov    BYTE PTR [rbp-0x1],al
  203dba:	0f b6 45 ff          	movzx  eax,BYTE PTR [rbp-0x1]
  203dbe:	c9                   	leave  
  203dbf:	c3                   	ret    

0000000000203dc0 <io::io_wait()>:
  203dc0:	55                   	push   rbp
  203dc1:	48 89 e5             	mov    rbp,rsp
  203dc4:	b8 00 00 00 00       	mov    eax,0x0
  203dc9:	e6 80                	out    0x80,al
  203dcb:	90                   	nop
  203dcc:	5d                   	pop    rbp
  203dcd:	c3                   	ret    

0000000000203dce <pic_send_eoi>:
  203dce:	55                   	push   rbp
  203dcf:	48 89 e5             	mov    rbp,rsp
  203dd2:	48 83 ec 08          	sub    rsp,0x8
  203dd6:	89 f8                	mov    eax,edi
  203dd8:	88 45 fc             	mov    BYTE PTR [rbp-0x4],al
  203ddb:	80 7d fc 07          	cmp    BYTE PTR [rbp-0x4],0x7
  203ddf:	76 0f                	jbe    203df0 <pic_send_eoi+0x22>
  203de1:	be 20 00 00 00       	mov    esi,0x20
  203de6:	bf a0 00 00 00       	mov    edi,0xa0
  203deb:	e8 91 ff ff ff       	call   203d81 <io::outb(unsigned short, unsigned char)>
  203df0:	be 20 00 00 00       	mov    esi,0x20
  203df5:	bf 20 00 00 00       	mov    edi,0x20
  203dfa:	e8 82 ff ff ff       	call   203d81 <io::outb(unsigned short, unsigned char)>
  203dff:	90                   	nop
  203e00:	c9                   	leave  
  203e01:	c3                   	ret    

0000000000203e02 <pic_remap>:
  203e02:	55                   	push   rbp
  203e03:	48 89 e5             	mov    rbp,rsp
  203e06:	48 83 ec 18          	sub    rsp,0x18
  203e0a:	89 fa                	mov    edx,edi
  203e0c:	89 f0                	mov    eax,esi
  203e0e:	88 55 ec             	mov    BYTE PTR [rbp-0x14],dl
  203e11:	88 45 e8             	mov    BYTE PTR [rbp-0x18],al
  203e14:	bf 21 00 00 00       	mov    edi,0x21
  203e19:	e8 84 ff ff ff       	call   203da2 <io::inb(unsigned short)>
  203e1e:	88 45 ff             	mov    BYTE PTR [rbp-0x1],al
  203e21:	bf a1 00 00 00       	mov    edi,0xa1
  203e26:	e8 77 ff ff ff       	call   203da2 <io::inb(unsigned short)>
  203e2b:	88 45 fe             	mov    BYTE PTR [rbp-0x2],al
  203e2e:	be 11 00 00 00       	mov    esi,0x11
  203e33:	bf 20 00 00 00       	mov    edi,0x20
  203e38:	e8 44 ff ff ff       	call   203d81 <io::outb(unsigned short, unsigned char)>
  203e3d:	e8 7e ff ff ff       	call   203dc0 <io::io_wait()>
  203e42:	be 11 00 00 00       	mov    esi,0x11
  203e47:	bf a0 00 00 00       	mov    edi,0xa0
  203e4c:	e8 30 ff ff ff       	call   203d81 <io::outb(unsigned short, unsigned char)>
  203e51:	e8 6a ff ff ff       	call   203dc0 <io::io_wait()>
  203e56:	0f b6 45 ec          	movzx  eax,BYTE PTR [rbp-0x14]
  203e5a:	89 c6                	mov    esi,eax
  203e5c:	bf 21 00 00 00       	mov    edi,0x21
  203e61:	e8 1b ff ff ff       	call   203d81 <io::outb(unsigned short, unsigned char)>
  203e66:	e8 55 ff ff ff       	call   203dc0 <io::io_wait()>
  203e6b:	0f b6 45 e8          	movzx  eax,BYTE PTR [rbp-0x18]
  203e6f:	89 c6                	mov    esi,eax
  203e71:	bf a1 00 00 00       	mov    edi,0xa1
  203e76:	e8 06 ff ff ff       	call   203d81 <io::outb(unsigned short, unsigned char)>
  203e7b:	e8 40 ff ff ff       	call   203dc0 <io::io_wait()>
  203e80:	be 04 00 00 00       	mov    esi,0x4
  203e85:	bf 21 00 00 00       	mov    edi,0x21
  203e8a:	e8 f2 fe ff ff       	call   203d81 <io::outb(unsigned short, unsigned char)>
  203e8f:	e8 2c ff ff ff       	call   203dc0 <io::io_wait()>
  203e94:	be 02 00 00 00       	mov    esi,0x2
  203e99:	bf a1 00 00 00       	mov    edi,0xa1
  203e9e:	e8 de fe ff ff       	call   203d81 <io::outb(unsigned short, unsigned char)>
  203ea3:	e8 18 ff ff ff       	call   203dc0 <io::io_wait()>
  203ea8:	be 01 00 00 00       	mov    esi,0x1
  203ead:	bf 21 00 00 00       	mov    edi,0x21
  203eb2:	e8 ca fe ff ff       	call   203d81 <io::outb(unsigned short, unsigned char)>
  203eb7:	e8 04 ff ff ff       	call   203dc0 <io::io_wait()>
  203ebc:	be 01 00 00 00       	mov    esi,0x1
  203ec1:	bf a1 00 00 00       	mov    edi,0xa1
  203ec6:	e8 b6 fe ff ff       	call   203d81 <io::outb(unsigned short, unsigned char)>
  203ecb:	e8 f0 fe ff ff       	call   203dc0 <io::io_wait()>
  203ed0:	0f b6 45 ff          	movzx  eax,BYTE PTR [rbp-0x1]
  203ed4:	89 c6                	mov    esi,eax
  203ed6:	bf 21 00 00 00       	mov    edi,0x21
  203edb:	e8 a1 fe ff ff       	call   203d81 <io::outb(unsigned short, unsigned char)>
  203ee0:	0f b6 45 fe          	movzx  eax,BYTE PTR [rbp-0x2]
  203ee4:	89 c6                	mov    esi,eax
  203ee6:	bf a1 00 00 00       	mov    edi,0xa1
  203eeb:	e8 91 fe ff ff       	call   203d81 <io::outb(unsigned short, unsigned char)>
  203ef0:	90                   	nop
  203ef1:	c9                   	leave  
  203ef2:	c3                   	ret    

0000000000203ef3 <irq_mask>:
  203ef3:	55                   	push   rbp
  203ef4:	48 89 e5             	mov    rbp,rsp
  203ef7:	48 83 ec 18          	sub    rsp,0x18
  203efb:	89 f8                	mov    eax,edi
  203efd:	88 45 ec             	mov    BYTE PTR [rbp-0x14],al
  203f00:	80 7d ec 07          	cmp    BYTE PTR [rbp-0x14],0x7
  203f04:	77 08                	ja     203f0e <irq_mask+0x1b>
  203f06:	66 c7 45 fe 21 00    	mov    WORD PTR [rbp-0x2],0x21
  203f0c:	eb 0a                	jmp    203f18 <irq_mask+0x25>
  203f0e:	66 c7 45 fe a1 00    	mov    WORD PTR [rbp-0x2],0xa1
  203f14:	80 6d ec 08          	sub    BYTE PTR [rbp-0x14],0x8
  203f18:	0f b7 45 fe          	movzx  eax,WORD PTR [rbp-0x2]
  203f1c:	89 c7                	mov    edi,eax
  203f1e:	e8 7f fe ff ff       	call   203da2 <io::inb(unsigned short)>
  203f23:	89 c6                	mov    esi,eax
  203f25:	0f b6 45 ec          	movzx  eax,BYTE PTR [rbp-0x14]
  203f29:	ba 01 00 00 00       	mov    edx,0x1
  203f2e:	89 c1                	mov    ecx,eax
  203f30:	d3 e2                	shl    edx,cl
  203f32:	89 d0                	mov    eax,edx
  203f34:	09 f0                	or     eax,esi
  203f36:	88 45 fd             	mov    BYTE PTR [rbp-0x3],al
  203f39:	0f b6 55 fd          	movzx  edx,BYTE PTR [rbp-0x3]
  203f3d:	0f b7 45 fe          	movzx  eax,WORD PTR [rbp-0x2]
  203f41:	89 d6                	mov    esi,edx
  203f43:	89 c7                	mov    edi,eax
  203f45:	e8 37 fe ff ff       	call   203d81 <io::outb(unsigned short, unsigned char)>
  203f4a:	90                   	nop
  203f4b:	c9                   	leave  
  203f4c:	c3                   	ret    

0000000000203f4d <irq_unmask>:
  203f4d:	55                   	push   rbp
  203f4e:	48 89 e5             	mov    rbp,rsp
  203f51:	48 83 ec 18          	sub    rsp,0x18
  203f55:	89 f8                	mov    eax,edi
  203f57:	88 45 ec             	mov    BYTE PTR [rbp-0x14],al
  203f5a:	80 7d ec 07          	cmp    BYTE PTR [rbp-0x14],0x7
  203f5e:	77 08                	ja     203f68 <irq_unmask+0x1b>
  203f60:	66 c7 45 fe 21 00    	mov    WORD PTR [rbp-0x2],0x21
  203f66:	eb 0a                	jmp    203f72 <irq_unmask+0x25>
  203f68:	66 c7 45 fe a1 00    	mov    WORD PTR [rbp-0x2],0xa1
  203f6e:	80 6d ec 08          	sub    BYTE PTR [rbp-0x14],0x8
  203f72:	0f b7 45 fe          	movzx  eax,WORD PTR [rbp-0x2]
  203f76:	89 c7                	mov    edi,eax
  203f78:	e8 25 fe ff ff       	call   203da2 <io::inb(unsigned short)>
  203f7d:	89 c6                	mov    esi,eax
  203f7f:	0f b6 45 ec          	movzx  eax,BYTE PTR [rbp-0x14]
  203f83:	ba 01 00 00 00       	mov    edx,0x1
  203f88:	89 c1                	mov    ecx,eax
  203f8a:	d3 e2                	shl    edx,cl
  203f8c:	89 d0                	mov    eax,edx
  203f8e:	f7 d0                	not    eax
  203f90:	21 f0                	and    eax,esi
  203f92:	88 45 fd             	mov    BYTE PTR [rbp-0x3],al
  203f95:	0f b6 55 fd          	movzx  edx,BYTE PTR [rbp-0x3]
  203f99:	0f b7 45 fe          	movzx  eax,WORD PTR [rbp-0x2]
  203f9d:	89 d6                	mov    esi,edx
  203f9f:	89 c7                	mov    edi,eax
  203fa1:	e8 db fd ff ff       	call   203d81 <io::outb(unsigned short, unsigned char)>
  203fa6:	90                   	nop
  203fa7:	c9                   	leave  
  203fa8:	c3                   	ret    

0000000000203fa9 <configure_pic>:
  203fa9:	55                   	push   rbp
  203faa:	48 89 e5             	mov    rbp,rsp
  203fad:	be 28 00 00 00       	mov    esi,0x28
  203fb2:	bf 20 00 00 00       	mov    edi,0x20
  203fb7:	e8 46 fe ff ff       	call   203e02 <pic_remap>
  203fbc:	90                   	nop
  203fbd:	5d                   	pop    rbp
  203fbe:	c3                   	ret    

0000000000203fbf <enumerate_function(unsigned long, unsigned long)>:
  203fbf:	55                   	push   rbp
  203fc0:	48 89 e5             	mov    rbp,rsp
  203fc3:	48 83 ec 30          	sub    rsp,0x30
  203fc7:	48 89 7d d8          	mov    QWORD PTR [rbp-0x28],rdi
  203fcb:	48 89 75 d0          	mov    QWORD PTR [rbp-0x30],rsi
  203fcf:	48 8b 45 d0          	mov    rax,QWORD PTR [rbp-0x30]
  203fd3:	48 c1 e0 0c          	shl    rax,0xc
  203fd7:	48 89 45 f8          	mov    QWORD PTR [rbp-0x8],rax
  203fdb:	48 8b 55 d8          	mov    rdx,QWORD PTR [rbp-0x28]
  203fdf:	48 8b 45 f8          	mov    rax,QWORD PTR [rbp-0x8]
  203fe3:	48 01 d0             	add    rax,rdx
  203fe6:	48 89 45 f0          	mov    QWORD PTR [rbp-0x10],rax
  203fea:	48 8b 4d f0          	mov    rcx,QWORD PTR [rbp-0x10]
  203fee:	48 8b 45 f0          	mov    rax,QWORD PTR [rbp-0x10]
  203ff2:	ba 00 00 00 00       	mov    edx,0x0
  203ff7:	48 89 ce             	mov    rsi,rcx
  203ffa:	48 89 c7             	mov    rdi,rax
  203ffd:	e8 4c f0 ff ff       	call   20304e <memory::paging::map_memory(void*, void*, bool)>
  204002:	48 8b 45 f0          	mov    rax,QWORD PTR [rbp-0x10]
  204006:	48 89 45 e8          	mov    QWORD PTR [rbp-0x18],rax
  20400a:	48 8b 45 e8          	mov    rax,QWORD PTR [rbp-0x18]
  20400e:	0f b7 40 02          	movzx  eax,WORD PTR [rax+0x2]
  204012:	66 85 c0             	test   ax,ax
  204015:	74 4c                	je     204063 <enumerate_function(unsigned long, unsigned long)+0xa4>
  204017:	48 8b 45 e8          	mov    rax,QWORD PTR [rbp-0x18]
  20401b:	0f b7 40 02          	movzx  eax,WORD PTR [rax+0x2]
  20401f:	66 83 f8 ff          	cmp    ax,0xffff
  204023:	74 41                	je     204066 <enumerate_function(unsigned long, unsigned long)+0xa7>
  204025:	48 8b 45 e8          	mov    rax,QWORD PTR [rbp-0x18]
  204029:	0f b6 40 0b          	movzx  eax,BYTE PTR [rax+0xb]
  20402d:	0f b6 c0             	movzx  eax,al
  204030:	83 f8 01             	cmp    eax,0x1
  204033:	75 32                	jne    204067 <enumerate_function(unsigned long, unsigned long)+0xa8>
  204035:	48 8b 45 e8          	mov    rax,QWORD PTR [rbp-0x18]
  204039:	0f b6 40 0a          	movzx  eax,BYTE PTR [rax+0xa]
  20403d:	0f b6 c0             	movzx  eax,al
  204040:	83 f8 06             	cmp    eax,0x6
  204043:	75 22                	jne    204067 <enumerate_function(unsigned long, unsigned long)+0xa8>
  204045:	48 8b 45 e8          	mov    rax,QWORD PTR [rbp-0x18]
  204049:	0f b6 40 09          	movzx  eax,BYTE PTR [rax+0x9]
  20404d:	0f b6 c0             	movzx  eax,al
  204050:	83 f8 01             	cmp    eax,0x1
  204053:	75 12                	jne    204067 <enumerate_function(unsigned long, unsigned long)+0xa8>
  204055:	48 8b 45 e8          	mov    rax,QWORD PTR [rbp-0x18]
  204059:	48 89 c7             	mov    rdi,rax
  20405c:	e8 c3 32 00 00       	call   207324 <io::disk::ahci::initialize(io::pci::device_header*)>
  204061:	eb 04                	jmp    204067 <enumerate_function(unsigned long, unsigned long)+0xa8>
  204063:	90                   	nop
  204064:	eb 01                	jmp    204067 <enumerate_function(unsigned long, unsigned long)+0xa8>
  204066:	90                   	nop
  204067:	c9                   	leave  
  204068:	c3                   	ret    

0000000000204069 <enumerate_device(unsigned long, unsigned long)>:
  204069:	55                   	push   rbp
  20406a:	48 89 e5             	mov    rbp,rsp
  20406d:	48 83 ec 30          	sub    rsp,0x30
  204071:	48 89 7d d8          	mov    QWORD PTR [rbp-0x28],rdi
  204075:	48 89 75 d0          	mov    QWORD PTR [rbp-0x30],rsi
  204079:	48 8b 45 d0          	mov    rax,QWORD PTR [rbp-0x30]
  20407d:	48 c1 e0 0f          	shl    rax,0xf
  204081:	48 89 45 f0          	mov    QWORD PTR [rbp-0x10],rax
  204085:	48 8b 55 d8          	mov    rdx,QWORD PTR [rbp-0x28]
  204089:	48 8b 45 f0          	mov    rax,QWORD PTR [rbp-0x10]
  20408d:	48 01 d0             	add    rax,rdx
  204090:	48 89 45 e8          	mov    QWORD PTR [rbp-0x18],rax
  204094:	48 8b 4d e8          	mov    rcx,QWORD PTR [rbp-0x18]
  204098:	48 8b 45 e8          	mov    rax,QWORD PTR [rbp-0x18]
  20409c:	ba 00 00 00 00       	mov    edx,0x0
  2040a1:	48 89 ce             	mov    rsi,rcx
  2040a4:	48 89 c7             	mov    rdi,rax
  2040a7:	e8 a2 ef ff ff       	call   20304e <memory::paging::map_memory(void*, void*, bool)>
  2040ac:	48 8b 45 e8          	mov    rax,QWORD PTR [rbp-0x18]
  2040b0:	48 89 45 e0          	mov    QWORD PTR [rbp-0x20],rax
  2040b4:	48 8b 45 e0          	mov    rax,QWORD PTR [rbp-0x20]
  2040b8:	0f b7 40 02          	movzx  eax,WORD PTR [rax+0x2]
  2040bc:	66 85 c0             	test   ax,ax
  2040bf:	74 36                	je     2040f7 <enumerate_device(unsigned long, unsigned long)+0x8e>
  2040c1:	48 8b 45 e0          	mov    rax,QWORD PTR [rbp-0x20]
  2040c5:	0f b7 40 02          	movzx  eax,WORD PTR [rax+0x2]
  2040c9:	66 83 f8 ff          	cmp    ax,0xffff
  2040cd:	74 2b                	je     2040fa <enumerate_device(unsigned long, unsigned long)+0x91>
  2040cf:	c7 45 fc 00 00 00 00 	mov    DWORD PTR [rbp-0x4],0x0
  2040d6:	83 7d fc 07          	cmp    DWORD PTR [rbp-0x4],0x7
  2040da:	7f 1f                	jg     2040fb <enumerate_device(unsigned long, unsigned long)+0x92>
  2040dc:	8b 45 fc             	mov    eax,DWORD PTR [rbp-0x4]
  2040df:	48 63 d0             	movsxd rdx,eax
  2040e2:	48 8b 45 e8          	mov    rax,QWORD PTR [rbp-0x18]
  2040e6:	48 89 d6             	mov    rsi,rdx
  2040e9:	48 89 c7             	mov    rdi,rax
  2040ec:	e8 ce fe ff ff       	call   203fbf <enumerate_function(unsigned long, unsigned long)>
  2040f1:	83 45 fc 01          	add    DWORD PTR [rbp-0x4],0x1
  2040f5:	eb df                	jmp    2040d6 <enumerate_device(unsigned long, unsigned long)+0x6d>
  2040f7:	90                   	nop
  2040f8:	eb 01                	jmp    2040fb <enumerate_device(unsigned long, unsigned long)+0x92>
  2040fa:	90                   	nop
  2040fb:	c9                   	leave  
  2040fc:	c3                   	ret    

00000000002040fd <enumerate_bus(unsigned long, unsigned long)>:
  2040fd:	55                   	push   rbp
  2040fe:	48 89 e5             	mov    rbp,rsp
  204101:	48 83 ec 30          	sub    rsp,0x30
  204105:	48 89 7d d8          	mov    QWORD PTR [rbp-0x28],rdi
  204109:	48 89 75 d0          	mov    QWORD PTR [rbp-0x30],rsi
  20410d:	48 8b 45 d0          	mov    rax,QWORD PTR [rbp-0x30]
  204111:	48 c1 e0 14          	shl    rax,0x14
  204115:	48 89 45 f0          	mov    QWORD PTR [rbp-0x10],rax
  204119:	48 8b 55 d8          	mov    rdx,QWORD PTR [rbp-0x28]
  20411d:	48 8b 45 f0          	mov    rax,QWORD PTR [rbp-0x10]
  204121:	48 01 d0             	add    rax,rdx
  204124:	48 89 45 e8          	mov    QWORD PTR [rbp-0x18],rax
  204128:	48 8b 4d e8          	mov    rcx,QWORD PTR [rbp-0x18]
  20412c:	48 8b 45 e8          	mov    rax,QWORD PTR [rbp-0x18]
  204130:	ba 00 00 00 00       	mov    edx,0x0
  204135:	48 89 ce             	mov    rsi,rcx
  204138:	48 89 c7             	mov    rdi,rax
  20413b:	e8 0e ef ff ff       	call   20304e <memory::paging::map_memory(void*, void*, bool)>
  204140:	48 8b 45 e8          	mov    rax,QWORD PTR [rbp-0x18]
  204144:	48 89 45 e0          	mov    QWORD PTR [rbp-0x20],rax
  204148:	48 8b 45 e0          	mov    rax,QWORD PTR [rbp-0x20]
  20414c:	0f b7 40 02          	movzx  eax,WORD PTR [rax+0x2]
  204150:	66 85 c0             	test   ax,ax
  204153:	74 36                	je     20418b <enumerate_bus(unsigned long, unsigned long)+0x8e>
  204155:	48 8b 45 e0          	mov    rax,QWORD PTR [rbp-0x20]
  204159:	0f b7 40 02          	movzx  eax,WORD PTR [rax+0x2]
  20415d:	66 83 f8 ff          	cmp    ax,0xffff
  204161:	74 2b                	je     20418e <enumerate_bus(unsigned long, unsigned long)+0x91>
  204163:	c7 45 fc 00 00 00 00 	mov    DWORD PTR [rbp-0x4],0x0
  20416a:	83 7d fc 1f          	cmp    DWORD PTR [rbp-0x4],0x1f
  20416e:	7f 1f                	jg     20418f <enumerate_bus(unsigned long, unsigned long)+0x92>
  204170:	8b 45 fc             	mov    eax,DWORD PTR [rbp-0x4]
  204173:	48 63 d0             	movsxd rdx,eax
  204176:	48 8b 45 e8          	mov    rax,QWORD PTR [rbp-0x18]
  20417a:	48 89 d6             	mov    rsi,rdx
  20417d:	48 89 c7             	mov    rdi,rax
  204180:	e8 e4 fe ff ff       	call   204069 <enumerate_device(unsigned long, unsigned long)>
  204185:	83 45 fc 01          	add    DWORD PTR [rbp-0x4],0x1
  204189:	eb df                	jmp    20416a <enumerate_bus(unsigned long, unsigned long)+0x6d>
  20418b:	90                   	nop
  20418c:	eb 01                	jmp    20418f <enumerate_bus(unsigned long, unsigned long)+0x92>
  20418e:	90                   	nop
  20418f:	c9                   	leave  
  204190:	c3                   	ret    

0000000000204191 <io::pci::enumerate_pci()>:
  204191:	55                   	push   rbp
  204192:	48 89 e5             	mov    rbp,rsp
  204195:	48 83 ec 20          	sub    rsp,0x20
  204199:	48 8b 05 e0 bf 00 00 	mov    rax,QWORD PTR [rip+0xbfe0]        # 210180 <io::pci::mcfg>
  2041a0:	8b 40 04             	mov    eax,DWORD PTR [rax+0x4]
  2041a3:	89 c0                	mov    eax,eax
  2041a5:	48 83 e8 2c          	sub    rax,0x2c
  2041a9:	48 c1 e8 04          	shr    rax,0x4
  2041ad:	89 45 ec             	mov    DWORD PTR [rbp-0x14],eax
  2041b0:	c7 45 fc 00 00 00 00 	mov    DWORD PTR [rbp-0x4],0x0
  2041b7:	8b 45 fc             	mov    eax,DWORD PTR [rbp-0x4]
  2041ba:	3b 45 ec             	cmp    eax,DWORD PTR [rbp-0x14]
  2041bd:	7d 61                	jge    204220 <io::pci::enumerate_pci()+0x8f>
  2041bf:	8b 45 fc             	mov    eax,DWORD PTR [rbp-0x4]
  2041c2:	48 98                	cdqe   
  2041c4:	48 c1 e0 04          	shl    rax,0x4
  2041c8:	48 89 c2             	mov    rdx,rax
  2041cb:	48 8b 05 ae bf 00 00 	mov    rax,QWORD PTR [rip+0xbfae]        # 210180 <io::pci::mcfg>
  2041d2:	48 01 d0             	add    rax,rdx
  2041d5:	48 83 c0 2c          	add    rax,0x2c
  2041d9:	48 89 45 e0          	mov    QWORD PTR [rbp-0x20],rax
  2041dd:	48 8b 45 e0          	mov    rax,QWORD PTR [rbp-0x20]
  2041e1:	0f b6 40 0a          	movzx  eax,BYTE PTR [rax+0xa]
  2041e5:	0f b6 c0             	movzx  eax,al
  2041e8:	48 89 45 f0          	mov    QWORD PTR [rbp-0x10],rax
  2041ec:	48 8b 45 e0          	mov    rax,QWORD PTR [rbp-0x20]
  2041f0:	0f b6 40 0b          	movzx  eax,BYTE PTR [rax+0xb]
  2041f4:	0f b6 c0             	movzx  eax,al
  2041f7:	48 39 45 f0          	cmp    QWORD PTR [rbp-0x10],rax
  2041fb:	73 1d                	jae    20421a <io::pci::enumerate_pci()+0x89>
  2041fd:	48 8b 45 e0          	mov    rax,QWORD PTR [rbp-0x20]
  204201:	48 8b 00             	mov    rax,QWORD PTR [rax]
  204204:	48 8b 55 f0          	mov    rdx,QWORD PTR [rbp-0x10]
  204208:	48 89 d6             	mov    rsi,rdx
  20420b:	48 89 c7             	mov    rdi,rax
  20420e:	e8 ea fe ff ff       	call   2040fd <enumerate_bus(unsigned long, unsigned long)>
  204213:	48 83 45 f0 01       	add    QWORD PTR [rbp-0x10],0x1
  204218:	eb d2                	jmp    2041ec <io::pci::enumerate_pci()+0x5b>
  20421a:	83 45 fc 01          	add    DWORD PTR [rbp-0x4],0x1
  20421e:	eb 97                	jmp    2041b7 <io::pci::enumerate_pci()+0x26>
  204220:	90                   	nop
  204221:	c9                   	leave  
  204222:	c3                   	ret    

0000000000204223 <shutdown>:
  204223:	55                   	push   rbp
  204224:	48 89 e5             	mov    rbp,rsp
  204227:	e8 56 03 00 00       	call   204582 <io::tty::clear()>
  20422c:	fa                   	cli    
  20422d:	f4                   	hlt    
  20422e:	90                   	nop
  20422f:	5d                   	pop    rbp
  204230:	c3                   	ret    

0000000000204231 <restart_warm>:
  204231:	55                   	push   rbp
  204232:	48 89 e5             	mov    rbp,rsp
  204235:	e9 c6 bd df ff       	jmp    0 <stivale_hdr-0x200000>
  20423a:	90                   	nop
  20423b:	5d                   	pop    rbp
  20423c:	c3                   	ret    

000000000020423d <restart_cold>:
  20423d:	55                   	push   rbp
  20423e:	48 89 e5             	mov    rbp,rsp
  204241:	e9 ba bd df ff       	jmp    0 <stivale_hdr-0x200000>
  204246:	90                   	nop
  204247:	5d                   	pop    rbp
  204248:	c3                   	ret    

0000000000204249 <io::outb(unsigned short, unsigned char)>:
  204249:	55                   	push   rbp
  20424a:	48 89 e5             	mov    rbp,rsp
  20424d:	48 83 ec 08          	sub    rsp,0x8
  204251:	89 f8                	mov    eax,edi
  204253:	89 f2                	mov    edx,esi
  204255:	66 89 45 fc          	mov    WORD PTR [rbp-0x4],ax
  204259:	89 d0                	mov    eax,edx
  20425b:	88 45 f8             	mov    BYTE PTR [rbp-0x8],al
  20425e:	0f b6 45 f8          	movzx  eax,BYTE PTR [rbp-0x8]
  204262:	0f b7 55 fc          	movzx  edx,WORD PTR [rbp-0x4]
  204266:	ee                   	out    dx,al
  204267:	90                   	nop
  204268:	c9                   	leave  
  204269:	c3                   	ret    

000000000020426a <io::serial::serial_byte(unsigned char)>:
  20426a:	55                   	push   rbp
  20426b:	48 89 e5             	mov    rbp,rsp
  20426e:	48 83 ec 08          	sub    rsp,0x8
  204272:	89 f8                	mov    eax,edi
  204274:	88 45 fc             	mov    BYTE PTR [rbp-0x4],al
  204277:	0f b6 45 fc          	movzx  eax,BYTE PTR [rbp-0x4]
  20427b:	89 c6                	mov    esi,eax
  20427d:	bf f8 03 00 00       	mov    edi,0x3f8
  204282:	e8 c2 ff ff ff       	call   204249 <io::outb(unsigned short, unsigned char)>
  204287:	90                   	nop
  204288:	c9                   	leave  
  204289:	c3                   	ret    

000000000020428a <sys::acpi::get_table(char*)>:
  20428a:	55                   	push   rbp
  20428b:	48 89 e5             	mov    rbp,rsp
  20428e:	48 83 ec 28          	sub    rsp,0x28
  204292:	48 89 7d d8          	mov    QWORD PTR [rbp-0x28],rdi
  204296:	bf 0a 00 00 00       	mov    edi,0xa
  20429b:	e8 ca ff ff ff       	call   20426a <io::serial::serial_byte(unsigned char)>
  2042a0:	48 8b 05 e1 be 00 00 	mov    rax,QWORD PTR [rip+0xbee1]        # 210188 <sys::acpi::rsdp>
  2042a7:	48 8b 40 18          	mov    rax,QWORD PTR [rax+0x18]
  2042ab:	8b 40 04             	mov    eax,DWORD PTR [rax+0x4]
  2042ae:	89 c0                	mov    eax,eax
  2042b0:	48 83 e8 24          	sub    rax,0x24
  2042b4:	48 c1 e8 03          	shr    rax,0x3
  2042b8:	48 89 45 e8          	mov    QWORD PTR [rbp-0x18],rax
  2042bc:	48 c7 45 f8 00 00 00 	mov    QWORD PTR [rbp-0x8],0x0
  2042c3:	00 
  2042c4:	48 8b 45 f8          	mov    rax,QWORD PTR [rbp-0x8]
  2042c8:	48 3b 45 e8          	cmp    rax,QWORD PTR [rbp-0x18]
  2042cc:	73 72                	jae    204340 <sys::acpi::get_table(char*)+0xb6>
  2042ce:	48 8b 05 b3 be 00 00 	mov    rax,QWORD PTR [rip+0xbeb3]        # 210188 <sys::acpi::rsdp>
  2042d5:	48 8b 40 18          	mov    rax,QWORD PTR [rax+0x18]
  2042d9:	48 89 c2             	mov    rdx,rax
  2042dc:	48 8b 45 f8          	mov    rax,QWORD PTR [rbp-0x8]
  2042e0:	48 c1 e0 03          	shl    rax,0x3
  2042e4:	48 01 d0             	add    rax,rdx
  2042e7:	48 83 c0 24          	add    rax,0x24
  2042eb:	48 8b 00             	mov    rax,QWORD PTR [rax]
  2042ee:	48 89 45 e0          	mov    QWORD PTR [rbp-0x20],rax
  2042f2:	c7 45 f4 00 00 00 00 	mov    DWORD PTR [rbp-0xc],0x0
  2042f9:	83 7d f4 03          	cmp    DWORD PTR [rbp-0xc],0x3
  2042fd:	7f 3a                	jg     204339 <sys::acpi::get_table(char*)+0xaf>
  2042ff:	8b 45 f4             	mov    eax,DWORD PTR [rbp-0xc]
  204302:	48 63 d0             	movsxd rdx,eax
  204305:	48 8b 45 d8          	mov    rax,QWORD PTR [rbp-0x28]
  204309:	48 01 d0             	add    rax,rdx
  20430c:	0f b6 00             	movzx  eax,BYTE PTR [rax]
  20430f:	0f be c8             	movsx  ecx,al
  204312:	48 8b 55 e0          	mov    rdx,QWORD PTR [rbp-0x20]
  204316:	8b 45 f4             	mov    eax,DWORD PTR [rbp-0xc]
  204319:	48 98                	cdqe   
  20431b:	0f b6 04 02          	movzx  eax,BYTE PTR [rdx+rax*1]
  20431f:	0f b6 c0             	movzx  eax,al
  204322:	39 c1                	cmp    ecx,eax
  204324:	75 12                	jne    204338 <sys::acpi::get_table(char*)+0xae>
  204326:	83 7d f4 03          	cmp    DWORD PTR [rbp-0xc],0x3
  20432a:	75 06                	jne    204332 <sys::acpi::get_table(char*)+0xa8>
  20432c:	48 8b 45 e0          	mov    rax,QWORD PTR [rbp-0x20]
  204330:	eb 13                	jmp    204345 <sys::acpi::get_table(char*)+0xbb>
  204332:	83 45 f4 01          	add    DWORD PTR [rbp-0xc],0x1
  204336:	eb c1                	jmp    2042f9 <sys::acpi::get_table(char*)+0x6f>
  204338:	90                   	nop
  204339:	48 83 45 f8 01       	add    QWORD PTR [rbp-0x8],0x1
  20433e:	eb 84                	jmp    2042c4 <sys::acpi::get_table(char*)+0x3a>
  204340:	b8 00 00 00 00       	mov    eax,0x0
  204345:	c9                   	leave  
  204346:	c3                   	ret    

0000000000204347 <gfx::screen::plot_pixel(gfx::shapes::s_pos_point, unsigned int)>:
  204347:	55                   	push   rbp
  204348:	48 89 e5             	mov    rbp,rsp
  20434b:	48 83 ec 10          	sub    rsp,0x10
  20434f:	48 89 7d f8          	mov    QWORD PTR [rbp-0x8],rdi
  204353:	89 75 f4             	mov    DWORD PTR [rbp-0xc],esi
  204356:	48 c7 c0 c0 01 21 00 	mov    rax,0x2101c0
  20435d:	0f b7 40 0a          	movzx  eax,WORD PTR [rax+0xa]
  204361:	0f b7 d0             	movzx  edx,ax
  204364:	8b 45 fc             	mov    eax,DWORD PTR [rbp-0x4]
  204367:	0f af d0             	imul   edx,eax
  20436a:	8b 45 f8             	mov    eax,DWORD PTR [rbp-0x8]
  20436d:	01 d0                	add    eax,edx
  20436f:	89 c0                	mov    eax,eax
  204371:	48 8d 14 85 00 00 00 	lea    rdx,[rax*4+0x0]
  204378:	00 
  204379:	48 c7 c0 c0 01 21 00 	mov    rax,0x2101c0
  204380:	48 8b 00             	mov    rax,QWORD PTR [rax]
  204383:	48 01 d0             	add    rax,rdx
  204386:	48 89 c2             	mov    rdx,rax
  204389:	8b 45 f4             	mov    eax,DWORD PTR [rbp-0xc]
  20438c:	89 02                	mov    DWORD PTR [rdx],eax
  20438e:	90                   	nop
  20438f:	c9                   	leave  
  204390:	c3                   	ret    

0000000000204391 <gfx::screen::plot_pixel_buffer(gfx::shapes::s_pos_point, unsigned int)>:
  204391:	55                   	push   rbp
  204392:	48 89 e5             	mov    rbp,rsp
  204395:	48 83 ec 10          	sub    rsp,0x10
  204399:	48 89 7d f8          	mov    QWORD PTR [rbp-0x8],rdi
  20439d:	89 75 f4             	mov    DWORD PTR [rbp-0xc],esi
  2043a0:	48 c7 c0 c0 01 21 00 	mov    rax,0x2101c0
  2043a7:	0f b7 40 0a          	movzx  eax,WORD PTR [rax+0xa]
  2043ab:	0f b7 d0             	movzx  edx,ax
  2043ae:	8b 45 fc             	mov    eax,DWORD PTR [rbp-0x4]
  2043b1:	0f af d0             	imul   edx,eax
  2043b4:	8b 45 f8             	mov    eax,DWORD PTR [rbp-0x8]
  2043b7:	01 d0                	add    eax,edx
  2043b9:	89 c0                	mov    eax,eax
  2043bb:	48 8d 14 85 00 00 00 	lea    rdx,[rax*4+0x0]
  2043c2:	00 
  2043c3:	48 c7 c0 c0 01 21 00 	mov    rax,0x2101c0
  2043ca:	48 8b 00             	mov    rax,QWORD PTR [rax]
  2043cd:	48 01 d0             	add    rax,rdx
  2043d0:	48 89 c2             	mov    rdx,rax
  2043d3:	8b 45 f4             	mov    eax,DWORD PTR [rbp-0xc]
  2043d6:	89 02                	mov    DWORD PTR [rdx],eax
  2043d8:	90                   	nop
  2043d9:	c9                   	leave  
  2043da:	c3                   	ret    

00000000002043db <io::tty::vga_entry(unsigned char, unsigned char)>:
  2043db:	55                   	push   rbp
  2043dc:	48 89 e5             	mov    rbp,rsp
  2043df:	48 83 ec 08          	sub    rsp,0x8
  2043e3:	89 fa                	mov    edx,edi
  2043e5:	89 f0                	mov    eax,esi
  2043e7:	88 55 fc             	mov    BYTE PTR [rbp-0x4],dl
  2043ea:	88 45 f8             	mov    BYTE PTR [rbp-0x8],al
  2043ed:	0f b6 55 fc          	movzx  edx,BYTE PTR [rbp-0x4]
  2043f1:	0f b6 45 f8          	movzx  eax,BYTE PTR [rbp-0x8]
  2043f5:	c1 e0 08             	shl    eax,0x8
  2043f8:	09 d0                	or     eax,edx
  2043fa:	c9                   	leave  
  2043fb:	c3                   	ret    

00000000002043fc <util::get_bit(unsigned long, unsigned char)>:
  2043fc:	55                   	push   rbp
  2043fd:	48 89 e5             	mov    rbp,rsp
  204400:	48 83 ec 10          	sub    rsp,0x10
  204404:	48 89 7d f8          	mov    QWORD PTR [rbp-0x8],rdi
  204408:	89 f0                	mov    eax,esi
  20440a:	88 45 f4             	mov    BYTE PTR [rbp-0xc],al
  20440d:	0f b6 45 f4          	movzx  eax,BYTE PTR [rbp-0xc]
  204411:	48 8b 55 f8          	mov    rdx,QWORD PTR [rbp-0x8]
  204415:	89 c1                	mov    ecx,eax
  204417:	48 d3 ea             	shr    rdx,cl
  20441a:	48 89 d0             	mov    rax,rdx
  20441d:	83 e0 01             	and    eax,0x1
  204420:	c9                   	leave  
  204421:	c3                   	ret    

0000000000204422 <io::tty::initialize()>:
  204422:	55                   	push   rbp
  204423:	48 89 e5             	mov    rbp,rsp
  204426:	48 83 ec 10          	sub    rsp,0x10
  20442a:	48 c7 05 6b bd 00 00 	mov    QWORD PTR [rip+0xbd6b],0x0        # 2101a0 <io::tty::row>
  204431:	00 00 00 00 
  204435:	48 c7 05 68 bd 00 00 	mov    QWORD PTR [rip+0xbd68],0x0        # 2101a8 <io::tty::column>
  20443c:	00 00 00 00 
  204440:	48 c7 c0 c0 01 21 00 	mov    rax,0x2101c0
  204447:	0f b7 40 0c          	movzx  eax,WORD PTR [rax+0xc]
  20444b:	0f b7 d0             	movzx  edx,ax
  20444e:	48 c7 c0 c0 01 21 00 	mov    rax,0x2101c0
  204455:	0f b7 40 0a          	movzx  eax,WORD PTR [rax+0xa]
  204459:	0f b7 c0             	movzx  eax,ax
  20445c:	89 d6                	mov    esi,edx
  20445e:	89 c7                	mov    edi,eax
  204460:	e8 26 2c 00 00       	call   20708b <gfx::shapes::dims(unsigned int, unsigned int)>
  204465:	48 89 c7             	mov    rdi,rax
  204468:	e8 ee 0b 00 00       	call   20505b <io::tty::get_optimal_size(gfx::shapes::s_dimensions)>
  20446d:	48 89 45 f8          	mov    QWORD PTR [rbp-0x8],rax
  204471:	8b 45 f8             	mov    eax,DWORD PTR [rbp-0x8]
  204474:	89 c0                	mov    eax,eax
  204476:	48 89 05 13 bd 00 00 	mov    QWORD PTR [rip+0xbd13],rax        # 210190 <io::tty::vga_width>
  20447d:	8b 45 fc             	mov    eax,DWORD PTR [rbp-0x4]
  204480:	89 c0                	mov    eax,eax
  204482:	48 89 05 0f bd 00 00 	mov    QWORD PTR [rip+0xbd0f],rax        # 210198 <io::tty::vga_height>
  204489:	e8 3b e8 ff ff       	call   202cc9 <request_page>
  20448e:	48 89 05 1b bd 00 00 	mov    QWORD PTR [rip+0xbd1b],rax        # 2101b0 <io::tty::text_buffer>
  204495:	8b 55 fc             	mov    edx,DWORD PTR [rbp-0x4]
  204498:	8b 45 f8             	mov    eax,DWORD PTR [rbp-0x8]
  20449b:	0f af c2             	imul   eax,edx
  20449e:	01 c0                	add    eax,eax
  2044a0:	89 c2                	mov    edx,eax
  2044a2:	48 8b 05 07 bd 00 00 	mov    rax,QWORD PTR [rip+0xbd07]        # 2101b0 <io::tty::text_buffer>
  2044a9:	be 00 00 00 00       	mov    esi,0x0
  2044ae:	48 89 c7             	mov    rdi,rax
  2044b1:	e8 d4 ea ff ff       	call   202f8a <memory::operations::memset(void*, unsigned char, unsigned long)>
  2044b6:	48 c7 c0 c0 01 21 00 	mov    rax,0x2101c0
  2044bd:	0f b7 40 0a          	movzx  eax,WORD PTR [rax+0xa]
  2044c1:	0f b7 d0             	movzx  edx,ax
  2044c4:	48 c7 c0 c0 01 21 00 	mov    rax,0x2101c0
  2044cb:	0f b7 40 0c          	movzx  eax,WORD PTR [rax+0xc]
  2044cf:	0f b7 c0             	movzx  eax,ax
  2044d2:	0f af d0             	imul   edx,eax
  2044d5:	48 c7 c0 c0 01 21 00 	mov    rax,0x2101c0
  2044dc:	0f b7 40 0e          	movzx  eax,WORD PTR [rax+0xe]
  2044e0:	66 c1 e8 03          	shr    ax,0x3
  2044e4:	0f b7 c0             	movzx  eax,ax
  2044e7:	0f af c2             	imul   eax,edx
  2044ea:	48 63 d0             	movsxd rdx,eax
  2044ed:	48 c7 c0 d0 01 21 00 	mov    rax,0x2101d0
  2044f4:	48 8b 00             	mov    rax,QWORD PTR [rax]
  2044f7:	be 00 00 00 00       	mov    esi,0x0
  2044fc:	48 89 c7             	mov    rdi,rax
  2044ff:	e8 86 ea ff ff       	call   202f8a <memory::operations::memset(void*, unsigned char, unsigned long)>
  204504:	48 c7 c0 c0 01 21 00 	mov    rax,0x2101c0
  20450b:	0f b7 40 0a          	movzx  eax,WORD PTR [rax+0xa]
  20450f:	0f b7 d0             	movzx  edx,ax
  204512:	48 c7 c0 c0 01 21 00 	mov    rax,0x2101c0
  204519:	0f b7 40 0c          	movzx  eax,WORD PTR [rax+0xc]
  20451d:	0f b7 c0             	movzx  eax,ax
  204520:	0f af d0             	imul   edx,eax
  204523:	48 c7 c0 c0 01 21 00 	mov    rax,0x2101c0
  20452a:	0f b7 40 0e          	movzx  eax,WORD PTR [rax+0xe]
  20452e:	66 c1 e8 03          	shr    ax,0x3
  204532:	0f b7 c0             	movzx  eax,ax
  204535:	0f af c2             	imul   eax,edx
  204538:	48 98                	cdqe   
  20453a:	48 c7 c2 c0 01 21 00 	mov    rdx,0x2101c0
  204541:	48 8b 12             	mov    rdx,QWORD PTR [rdx]
  204544:	48 89 d1             	mov    rcx,rdx
  204547:	48 89 c2             	mov    rdx,rax
  20454a:	be 00 00 00 00       	mov    esi,0x0
  20454f:	48 89 cf             	mov    rdi,rcx
  204552:	e8 33 ea ff ff       	call   202f8a <memory::operations::memset(void*, unsigned char, unsigned long)>
  204557:	48 8d 3d 62 61 00 00 	lea    rdi,[rip+0x6162]        # 20a6c0 <BASE_GRAN+0x698>
  20455e:	e8 7a 3c 00 00       	call   2081dd <serial_msg>
  204563:	48 8b 05 46 bc 00 00 	mov    rax,QWORD PTR [rip+0xbc46]        # 2101b0 <io::tty::text_buffer>
  20456a:	be 10 00 00 00       	mov    esi,0x10
  20456f:	48 89 c7             	mov    rdi,rax
  204572:	e8 02 f5 ff ff       	call   203a79 <util::itoa(long, int)>
  204577:	48 89 c7             	mov    rdi,rax
  20457a:	e8 5e 3c 00 00       	call   2081dd <serial_msg>
  20457f:	90                   	nop
  204580:	c9                   	leave  
  204581:	c3                   	ret    

0000000000204582 <io::tty::clear()>:
  204582:	55                   	push   rbp
  204583:	48 89 e5             	mov    rbp,rsp
  204586:	48 83 ec 10          	sub    rsp,0x10
  20458a:	c7 45 fc 00 00 00 00 	mov    DWORD PTR [rbp-0x4],0x0
  204591:	8b 55 fc             	mov    edx,DWORD PTR [rbp-0x4]
  204594:	48 8b 05 fd bb 00 00 	mov    rax,QWORD PTR [rip+0xbbfd]        # 210198 <io::tty::vga_height>
  20459b:	48 39 c2             	cmp    rdx,rax
  20459e:	73 3d                	jae    2045dd <io::tty::clear()+0x5b>
  2045a0:	c7 45 f8 00 00 00 00 	mov    DWORD PTR [rbp-0x8],0x0
  2045a7:	8b 55 f8             	mov    edx,DWORD PTR [rbp-0x8]
  2045aa:	48 8b 05 df bb 00 00 	mov    rax,QWORD PTR [rip+0xbbdf]        # 210190 <io::tty::vga_width>
  2045b1:	48 39 c2             	cmp    rdx,rax
  2045b4:	73 21                	jae    2045d7 <io::tty::clear()+0x55>
  2045b6:	8b 55 fc             	mov    edx,DWORD PTR [rbp-0x4]
  2045b9:	8b 45 f8             	mov    eax,DWORD PTR [rbp-0x8]
  2045bc:	48 89 d1             	mov    rcx,rdx
  2045bf:	48 89 c2             	mov    rdx,rax
  2045c2:	be 00 00 00 00       	mov    esi,0x0
  2045c7:	bf 20 00 00 00       	mov    edi,0x20
  2045cc:	e8 1e 00 00 00       	call   2045ef <io::tty::put_entry_at(char, unsigned char, unsigned long, unsigned long)>
  2045d1:	83 45 f8 01          	add    DWORD PTR [rbp-0x8],0x1
  2045d5:	eb d0                	jmp    2045a7 <io::tty::clear()+0x25>
  2045d7:	83 45 fc 01          	add    DWORD PTR [rbp-0x4],0x1
  2045db:	eb b4                	jmp    204591 <io::tty::clear()+0xf>
  2045dd:	be 00 00 00 00       	mov    esi,0x0
  2045e2:	bf 00 00 00 00       	mov    edi,0x0
  2045e7:	e8 1f 0a 00 00       	call   20500b <io::tty::set_cursor(unsigned long, unsigned long)>
  2045ec:	90                   	nop
  2045ed:	c9                   	leave  
  2045ee:	c3                   	ret    

00000000002045ef <io::tty::put_entry_at(char, unsigned char, unsigned long, unsigned long)>:
  2045ef:	55                   	push   rbp
  2045f0:	48 89 e5             	mov    rbp,rsp
  2045f3:	53                   	push   rbx
  2045f4:	48 83 ec 28          	sub    rsp,0x28
  2045f8:	89 f0                	mov    eax,esi
  2045fa:	48 89 55 e0          	mov    QWORD PTR [rbp-0x20],rdx
  2045fe:	48 89 4d d8          	mov    QWORD PTR [rbp-0x28],rcx
  204602:	89 fa                	mov    edx,edi
  204604:	88 55 ec             	mov    BYTE PTR [rbp-0x14],dl
  204607:	88 45 e8             	mov    BYTE PTR [rbp-0x18],al
  20460a:	48 8b 05 7f bb 00 00 	mov    rax,QWORD PTR [rip+0xbb7f]        # 210190 <io::tty::vga_width>
  204611:	48 39 45 e0          	cmp    QWORD PTR [rbp-0x20],rax
  204615:	77 61                	ja     204678 <io::tty::put_entry_at(char, unsigned char, unsigned long, unsigned long)+0x89>
  204617:	48 8b 05 7a bb 00 00 	mov    rax,QWORD PTR [rip+0xbb7a]        # 210198 <io::tty::vga_height>
  20461e:	48 39 45 d8          	cmp    QWORD PTR [rbp-0x28],rax
  204622:	77 57                	ja     20467b <io::tty::put_entry_at(char, unsigned char, unsigned long, unsigned long)+0x8c>
  204624:	0f b6 55 e8          	movzx  edx,BYTE PTR [rbp-0x18]
  204628:	0f b6 45 ec          	movzx  eax,BYTE PTR [rbp-0x14]
  20462c:	0f b6 c0             	movzx  eax,al
  20462f:	48 8b 35 7a bb 00 00 	mov    rsi,QWORD PTR [rip+0xbb7a]        # 2101b0 <io::tty::text_buffer>
  204636:	48 8b 0d 53 bb 00 00 	mov    rcx,QWORD PTR [rip+0xbb53]        # 210190 <io::tty::vga_width>
  20463d:	48 89 cf             	mov    rdi,rcx
  204640:	48 0f af 7d d8       	imul   rdi,QWORD PTR [rbp-0x28]
  204645:	48 8b 4d e0          	mov    rcx,QWORD PTR [rbp-0x20]
  204649:	48 01 f9             	add    rcx,rdi
  20464c:	48 01 c9             	add    rcx,rcx
  20464f:	48 8d 1c 0e          	lea    rbx,[rsi+rcx*1]
  204653:	89 d6                	mov    esi,edx
  204655:	89 c7                	mov    edi,eax
  204657:	e8 7f fd ff ff       	call   2043db <io::tty::vga_entry(unsigned char, unsigned char)>
  20465c:	66 89 03             	mov    WORD PTR [rbx],ax
  20465f:	48 8b 45 d8          	mov    rax,QWORD PTR [rbp-0x28]
  204663:	0f b7 d0             	movzx  edx,ax
  204666:	48 8b 45 e0          	mov    rax,QWORD PTR [rbp-0x20]
  20466a:	0f b7 c0             	movzx  eax,ax
  20466d:	89 d6                	mov    esi,edx
  20466f:	89 c7                	mov    edi,eax
  204671:	e8 e6 00 00 00       	call   20475c <io::tty::render_entry_at(unsigned short, unsigned short)>
  204676:	eb 04                	jmp    20467c <io::tty::put_entry_at(char, unsigned char, unsigned long, unsigned long)+0x8d>
  204678:	90                   	nop
  204679:	eb 01                	jmp    20467c <io::tty::put_entry_at(char, unsigned char, unsigned long, unsigned long)+0x8d>
  20467b:	90                   	nop
  20467c:	48 8b 5d f8          	mov    rbx,QWORD PTR [rbp-0x8]
  204680:	c9                   	leave  
  204681:	c3                   	ret    

0000000000204682 <io::tty::convert_vga_to_pix(unsigned char)>:
  204682:	55                   	push   rbp
  204683:	48 89 e5             	mov    rbp,rsp
  204686:	48 83 ec 18          	sub    rsp,0x18
  20468a:	89 f8                	mov    eax,edi
  20468c:	88 45 ec             	mov    BYTE PTR [rbp-0x14],al
  20468f:	c7 45 fc 00 00 00 00 	mov    DWORD PTR [rbp-0x4],0x0
  204696:	0f b6 45 ec          	movzx  eax,BYTE PTR [rbp-0x14]
  20469a:	83 f8 0f             	cmp    eax,0xf
  20469d:	0f 87 b4 00 00 00    	ja     204757 <io::tty::convert_vga_to_pix(unsigned char)+0xd5>
  2046a3:	89 c0                	mov    eax,eax
  2046a5:	48 8d 14 85 00 00 00 	lea    rdx,[rax*4+0x0]
  2046ac:	00 
  2046ad:	48 8d 05 1c 60 00 00 	lea    rax,[rip+0x601c]        # 20a6d0 <BASE_GRAN+0x6a8>
  2046b4:	8b 04 02             	mov    eax,DWORD PTR [rdx+rax*1]
  2046b7:	48 98                	cdqe   
  2046b9:	48 8d 15 10 60 00 00 	lea    rdx,[rip+0x6010]        # 20a6d0 <BASE_GRAN+0x6a8>
  2046c0:	48 01 d0             	add    rax,rdx
  2046c3:	ff e0                	jmp    rax
  2046c5:	c7 45 fc 00 00 00 00 	mov    DWORD PTR [rbp-0x4],0x0
  2046cc:	e9 86 00 00 00       	jmp    204757 <io::tty::convert_vga_to_pix(unsigned char)+0xd5>
  2046d1:	c7 45 fc ff ff ff 00 	mov    DWORD PTR [rbp-0x4],0xffffff
  2046d8:	eb 7d                	jmp    204757 <io::tty::convert_vga_to_pix(unsigned char)+0xd5>
  2046da:	c7 45 fc 00 00 ff 00 	mov    DWORD PTR [rbp-0x4],0xff0000
  2046e1:	eb 74                	jmp    204757 <io::tty::convert_vga_to_pix(unsigned char)+0xd5>
  2046e3:	c7 45 fc ff 22 22 00 	mov    DWORD PTR [rbp-0x4],0x2222ff
  2046ea:	eb 6b                	jmp    204757 <io::tty::convert_vga_to_pix(unsigned char)+0xd5>
  2046ec:	c7 45 fc 22 ff 22 00 	mov    DWORD PTR [rbp-0x4],0x22ff22
  2046f3:	eb 62                	jmp    204757 <io::tty::convert_vga_to_pix(unsigned char)+0xd5>
  2046f5:	c7 45 fc ff ff 11 00 	mov    DWORD PTR [rbp-0x4],0x11ffff
  2046fc:	eb 59                	jmp    204757 <io::tty::convert_vga_to_pix(unsigned char)+0xd5>
  2046fe:	c7 45 fc aa 01 ff 00 	mov    DWORD PTR [rbp-0x4],0xff01aa
  204705:	eb 50                	jmp    204757 <io::tty::convert_vga_to_pix(unsigned char)+0xd5>
  204707:	c7 45 fc cd eb ff 00 	mov    DWORD PTR [rbp-0x4],0xffebcd
  20470e:	eb 47                	jmp    204757 <io::tty::convert_vga_to_pix(unsigned char)+0xd5>
  204710:	c7 45 fc dd dd dd 00 	mov    DWORD PTR [rbp-0x4],0xdddddd
  204717:	eb 3e                	jmp    204757 <io::tty::convert_vga_to_pix(unsigned char)+0xd5>
  204719:	c7 45 fc 55 55 55 00 	mov    DWORD PTR [rbp-0x4],0x555555
  204720:	eb 35                	jmp    204757 <io::tty::convert_vga_to_pix(unsigned char)+0xd5>
  204722:	c7 45 fc ff aa 01 00 	mov    DWORD PTR [rbp-0x4],0x1aaff
  204729:	eb 2c                	jmp    204757 <io::tty::convert_vga_to_pix(unsigned char)+0xd5>
  20472b:	c7 45 fc 01 ff 01 00 	mov    DWORD PTR [rbp-0x4],0x1ff01
  204732:	eb 23                	jmp    204757 <io::tty::convert_vga_to_pix(unsigned char)+0xd5>
  204734:	c7 45 fc ff dd 01 00 	mov    DWORD PTR [rbp-0x4],0x1ddff
  20473b:	eb 1a                	jmp    204757 <io::tty::convert_vga_to_pix(unsigned char)+0xd5>
  20473d:	c7 45 fc 22 22 ff 00 	mov    DWORD PTR [rbp-0x4],0xff2222
  204744:	eb 11                	jmp    204757 <io::tty::convert_vga_to_pix(unsigned char)+0xd5>
  204746:	c7 45 fc 77 00 ff 00 	mov    DWORD PTR [rbp-0x4],0xff0077
  20474d:	eb 08                	jmp    204757 <io::tty::convert_vga_to_pix(unsigned char)+0xd5>
  20474f:	c7 45 fc 13 45 8b 00 	mov    DWORD PTR [rbp-0x4],0x8b4513
  204756:	90                   	nop
  204757:	8b 45 fc             	mov    eax,DWORD PTR [rbp-0x4]
  20475a:	c9                   	leave  
  20475b:	c3                   	ret    

000000000020475c <io::tty::render_entry_at(unsigned short, unsigned short)>:
  20475c:	55                   	push   rbp
  20475d:	48 89 e5             	mov    rbp,rsp
  204760:	53                   	push   rbx
  204761:	48 81 ec 98 00 00 00 	sub    rsp,0x98
  204768:	89 fa                	mov    edx,edi
  20476a:	89 f0                	mov    eax,esi
  20476c:	66 89 95 6c ff ff ff 	mov    WORD PTR [rbp-0x94],dx
  204773:	66 89 85 68 ff ff ff 	mov    WORD PTR [rbp-0x98],ax
  20477a:	48 8b 0d 2f ba 00 00 	mov    rcx,QWORD PTR [rip+0xba2f]        # 2101b0 <io::tty::text_buffer>
  204781:	0f b7 95 68 ff ff ff 	movzx  edx,WORD PTR [rbp-0x98]
  204788:	48 8b 05 01 ba 00 00 	mov    rax,QWORD PTR [rip+0xba01]        # 210190 <io::tty::vga_width>
  20478f:	48 0f af d0          	imul   rdx,rax
  204793:	0f b7 85 6c ff ff ff 	movzx  eax,WORD PTR [rbp-0x94]
  20479a:	48 01 d0             	add    rax,rdx
  20479d:	48 01 c0             	add    rax,rax
  2047a0:	48 01 c8             	add    rax,rcx
  2047a3:	0f b7 00             	movzx  eax,WORD PTR [rax]
  2047a6:	66 89 45 c6          	mov    WORD PTR [rbp-0x3a],ax
  2047aa:	0f b7 45 c6          	movzx  eax,WORD PTR [rbp-0x3a]
  2047ae:	66 c1 e8 08          	shr    ax,0x8
  2047b2:	83 e0 0f             	and    eax,0xf
  2047b5:	88 45 c5             	mov    BYTE PTR [rbp-0x3b],al
  2047b8:	0f b7 45 c6          	movzx  eax,WORD PTR [rbp-0x3a]
  2047bc:	66 c1 e8 0c          	shr    ax,0xc
  2047c0:	88 45 c4             	mov    BYTE PTR [rbp-0x3c],al
  2047c3:	0f b7 45 c6          	movzx  eax,WORD PTR [rbp-0x3a]
  2047c7:	88 45 c3             	mov    BYTE PTR [rbp-0x3d],al
  2047ca:	0f b6 45 c5          	movzx  eax,BYTE PTR [rbp-0x3b]
  2047ce:	89 c7                	mov    edi,eax
  2047d0:	e8 ad fe ff ff       	call   204682 <io::tty::convert_vga_to_pix(unsigned char)>
  2047d5:	89 45 bc             	mov    DWORD PTR [rbp-0x44],eax
  2047d8:	0f b6 45 c4          	movzx  eax,BYTE PTR [rbp-0x3c]
  2047dc:	89 c7                	mov    edi,eax
  2047de:	e8 9f fe ff ff       	call   204682 <io::tty::convert_vga_to_pix(unsigned char)>
  2047e3:	89 45 b8             	mov    DWORD PTR [rbp-0x48],eax
  2047e6:	0f be 45 c3          	movsx  eax,BYTE PTR [rbp-0x3d]
  2047ea:	89 c7                	mov    edi,eax
  2047ec:	e8 c0 2a 00 00       	call   2072b1 <gfx::fonts::get_character_font(char)>
  2047f1:	48 89 45 b0          	mov    QWORD PTR [rbp-0x50],rax
  2047f5:	c6 45 ef 01          	mov    BYTE PTR [rbp-0x11],0x1
  2047f9:	80 7d ef 40          	cmp    BYTE PTR [rbp-0x11],0x40
  2047fd:	77 2f                	ja     20482e <io::tty::render_entry_at(unsigned short, unsigned short)+0xd2>
  2047ff:	0f b6 55 ef          	movzx  edx,BYTE PTR [rbp-0x11]
  204803:	0f b6 45 ef          	movzx  eax,BYTE PTR [rbp-0x11]
  204807:	8d 58 ff             	lea    ebx,[rax-0x1]
  20480a:	48 8b 45 b0          	mov    rax,QWORD PTR [rbp-0x50]
  20480e:	89 d6                	mov    esi,edx
  204810:	48 89 c7             	mov    rdi,rax
  204813:	e8 e4 fb ff ff       	call   2043fc <util::get_bit(unsigned long, unsigned char)>
  204818:	48 63 d3             	movsxd rdx,ebx
  20481b:	88 84 15 70 ff ff ff 	mov    BYTE PTR [rbp+rdx*1-0x90],al
  204822:	0f b6 45 ef          	movzx  eax,BYTE PTR [rbp-0x11]
  204826:	83 c0 01             	add    eax,0x1
  204829:	88 45 ef             	mov    BYTE PTR [rbp-0x11],al
  20482c:	eb cb                	jmp    2047f9 <io::tty::render_entry_at(unsigned short, unsigned short)+0x9d>
  20482e:	48 c7 45 e0 00 00 00 	mov    QWORD PTR [rbp-0x20],0x0
  204835:	00 
  204836:	0f b7 95 68 ff ff ff 	movzx  edx,WORD PTR [rbp-0x98]
  20483d:	89 d0                	mov    eax,edx
  20483f:	c1 e0 03             	shl    eax,0x3
  204842:	01 d0                	add    eax,edx
  204844:	48 98                	cdqe   
  204846:	48 89 45 d8          	mov    QWORD PTR [rbp-0x28],rax
  20484a:	48 83 7d e0 07       	cmp    QWORD PTR [rbp-0x20],0x7
  20484f:	0f 87 a1 00 00 00    	ja     2048f6 <io::tty::render_entry_at(unsigned short, unsigned short)+0x19a>
  204855:	48 c7 45 d0 00 00 00 	mov    QWORD PTR [rbp-0x30],0x0
  20485c:	00 
  20485d:	0f b7 85 6c ff ff ff 	movzx  eax,WORD PTR [rbp-0x94]
  204864:	c1 e0 03             	shl    eax,0x3
  204867:	48 98                	cdqe   
  204869:	48 89 45 c8          	mov    QWORD PTR [rbp-0x38],rax
  20486d:	48 83 7d d0 07       	cmp    QWORD PTR [rbp-0x30],0x7
  204872:	77 73                	ja     2048e7 <io::tty::render_entry_at(unsigned short, unsigned short)+0x18b>
  204874:	48 8b 45 e0          	mov    rax,QWORD PTR [rbp-0x20]
  204878:	48 8d 14 c5 00 00 00 	lea    rdx,[rax*8+0x0]
  20487f:	00 
  204880:	48 8b 45 d0          	mov    rax,QWORD PTR [rbp-0x30]
  204884:	48 01 d0             	add    rax,rdx
  204887:	0f b6 84 05 70 ff ff 	movzx  eax,BYTE PTR [rbp+rax*1-0x90]
  20488e:	ff 
  20488f:	84 c0                	test   al,al
  204891:	74 25                	je     2048b8 <io::tty::render_entry_at(unsigned short, unsigned short)+0x15c>
  204893:	48 8b 45 d8          	mov    rax,QWORD PTR [rbp-0x28]
  204897:	89 c2                	mov    edx,eax
  204899:	48 8b 45 c8          	mov    rax,QWORD PTR [rbp-0x38]
  20489d:	89 d6                	mov    esi,edx
  20489f:	89 c7                	mov    edi,eax
  2048a1:	e8 c5 27 00 00       	call   20706b <gfx::shapes::pos(unsigned int, unsigned int)>
  2048a6:	48 89 c2             	mov    rdx,rax
  2048a9:	8b 45 bc             	mov    eax,DWORD PTR [rbp-0x44]
  2048ac:	89 c6                	mov    esi,eax
  2048ae:	48 89 d7             	mov    rdi,rdx
  2048b1:	e8 91 fa ff ff       	call   204347 <gfx::screen::plot_pixel(gfx::shapes::s_pos_point, unsigned int)>
  2048b6:	eb 23                	jmp    2048db <io::tty::render_entry_at(unsigned short, unsigned short)+0x17f>
  2048b8:	48 8b 45 d8          	mov    rax,QWORD PTR [rbp-0x28]
  2048bc:	89 c2                	mov    edx,eax
  2048be:	48 8b 45 c8          	mov    rax,QWORD PTR [rbp-0x38]
  2048c2:	89 d6                	mov    esi,edx
  2048c4:	89 c7                	mov    edi,eax
  2048c6:	e8 a0 27 00 00       	call   20706b <gfx::shapes::pos(unsigned int, unsigned int)>
  2048cb:	48 89 c2             	mov    rdx,rax
  2048ce:	8b 45 b8             	mov    eax,DWORD PTR [rbp-0x48]
  2048d1:	89 c6                	mov    esi,eax
  2048d3:	48 89 d7             	mov    rdi,rdx
  2048d6:	e8 6c fa ff ff       	call   204347 <gfx::screen::plot_pixel(gfx::shapes::s_pos_point, unsigned int)>
  2048db:	48 83 45 d0 01       	add    QWORD PTR [rbp-0x30],0x1
  2048e0:	48 83 45 c8 01       	add    QWORD PTR [rbp-0x38],0x1
  2048e5:	eb 86                	jmp    20486d <io::tty::render_entry_at(unsigned short, unsigned short)+0x111>
  2048e7:	48 83 45 e0 01       	add    QWORD PTR [rbp-0x20],0x1
  2048ec:	48 83 45 d8 01       	add    QWORD PTR [rbp-0x28],0x1
  2048f1:	e9 54 ff ff ff       	jmp    20484a <io::tty::render_entry_at(unsigned short, unsigned short)+0xee>
  2048f6:	90                   	nop
  2048f7:	48 8b 5d f8          	mov    rbx,QWORD PTR [rbp-0x8]
  2048fb:	c9                   	leave  
  2048fc:	c3                   	ret    

00000000002048fd <io::tty::render_entry_at_buffer(unsigned short, unsigned short)>:
  2048fd:	55                   	push   rbp
  2048fe:	48 89 e5             	mov    rbp,rsp
  204901:	53                   	push   rbx
  204902:	48 81 ec 98 00 00 00 	sub    rsp,0x98
  204909:	89 fa                	mov    edx,edi
  20490b:	89 f0                	mov    eax,esi
  20490d:	66 89 95 6c ff ff ff 	mov    WORD PTR [rbp-0x94],dx
  204914:	66 89 85 68 ff ff ff 	mov    WORD PTR [rbp-0x98],ax
  20491b:	48 8b 0d 8e b8 00 00 	mov    rcx,QWORD PTR [rip+0xb88e]        # 2101b0 <io::tty::text_buffer>
  204922:	0f b7 95 68 ff ff ff 	movzx  edx,WORD PTR [rbp-0x98]
  204929:	48 8b 05 60 b8 00 00 	mov    rax,QWORD PTR [rip+0xb860]        # 210190 <io::tty::vga_width>
  204930:	48 0f af d0          	imul   rdx,rax
  204934:	0f b7 85 6c ff ff ff 	movzx  eax,WORD PTR [rbp-0x94]
  20493b:	48 01 d0             	add    rax,rdx
  20493e:	48 01 c0             	add    rax,rax
  204941:	48 01 c8             	add    rax,rcx
  204944:	0f b7 00             	movzx  eax,WORD PTR [rax]
  204947:	66 89 45 c6          	mov    WORD PTR [rbp-0x3a],ax
  20494b:	0f b7 45 c6          	movzx  eax,WORD PTR [rbp-0x3a]
  20494f:	66 c1 e8 08          	shr    ax,0x8
  204953:	83 e0 0f             	and    eax,0xf
  204956:	88 45 c5             	mov    BYTE PTR [rbp-0x3b],al
  204959:	0f b7 45 c6          	movzx  eax,WORD PTR [rbp-0x3a]
  20495d:	66 c1 e8 0c          	shr    ax,0xc
  204961:	88 45 c4             	mov    BYTE PTR [rbp-0x3c],al
  204964:	0f b7 45 c6          	movzx  eax,WORD PTR [rbp-0x3a]
  204968:	88 45 c3             	mov    BYTE PTR [rbp-0x3d],al
  20496b:	0f b6 45 c5          	movzx  eax,BYTE PTR [rbp-0x3b]
  20496f:	89 c7                	mov    edi,eax
  204971:	e8 0c fd ff ff       	call   204682 <io::tty::convert_vga_to_pix(unsigned char)>
  204976:	89 45 bc             	mov    DWORD PTR [rbp-0x44],eax
  204979:	0f b6 45 c4          	movzx  eax,BYTE PTR [rbp-0x3c]
  20497d:	89 c7                	mov    edi,eax
  20497f:	e8 fe fc ff ff       	call   204682 <io::tty::convert_vga_to_pix(unsigned char)>
  204984:	89 45 b8             	mov    DWORD PTR [rbp-0x48],eax
  204987:	0f be 45 c3          	movsx  eax,BYTE PTR [rbp-0x3d]
  20498b:	89 c7                	mov    edi,eax
  20498d:	e8 1f 29 00 00       	call   2072b1 <gfx::fonts::get_character_font(char)>
  204992:	48 89 45 b0          	mov    QWORD PTR [rbp-0x50],rax
  204996:	c6 45 ef 01          	mov    BYTE PTR [rbp-0x11],0x1
  20499a:	80 7d ef 40          	cmp    BYTE PTR [rbp-0x11],0x40
  20499e:	77 2f                	ja     2049cf <io::tty::render_entry_at_buffer(unsigned short, unsigned short)+0xd2>
  2049a0:	0f b6 55 ef          	movzx  edx,BYTE PTR [rbp-0x11]
  2049a4:	0f b6 45 ef          	movzx  eax,BYTE PTR [rbp-0x11]
  2049a8:	8d 58 ff             	lea    ebx,[rax-0x1]
  2049ab:	48 8b 45 b0          	mov    rax,QWORD PTR [rbp-0x50]
  2049af:	89 d6                	mov    esi,edx
  2049b1:	48 89 c7             	mov    rdi,rax
  2049b4:	e8 43 fa ff ff       	call   2043fc <util::get_bit(unsigned long, unsigned char)>
  2049b9:	48 63 d3             	movsxd rdx,ebx
  2049bc:	88 84 15 70 ff ff ff 	mov    BYTE PTR [rbp+rdx*1-0x90],al
  2049c3:	0f b6 45 ef          	movzx  eax,BYTE PTR [rbp-0x11]
  2049c7:	83 c0 01             	add    eax,0x1
  2049ca:	88 45 ef             	mov    BYTE PTR [rbp-0x11],al
  2049cd:	eb cb                	jmp    20499a <io::tty::render_entry_at_buffer(unsigned short, unsigned short)+0x9d>
  2049cf:	48 c7 45 e0 00 00 00 	mov    QWORD PTR [rbp-0x20],0x0
  2049d6:	00 
  2049d7:	0f b7 95 68 ff ff ff 	movzx  edx,WORD PTR [rbp-0x98]
  2049de:	89 d0                	mov    eax,edx
  2049e0:	c1 e0 03             	shl    eax,0x3
  2049e3:	01 d0                	add    eax,edx
  2049e5:	48 98                	cdqe   
  2049e7:	48 89 45 d8          	mov    QWORD PTR [rbp-0x28],rax
  2049eb:	48 83 7d e0 07       	cmp    QWORD PTR [rbp-0x20],0x7
  2049f0:	0f 87 a1 00 00 00    	ja     204a97 <io::tty::render_entry_at_buffer(unsigned short, unsigned short)+0x19a>
  2049f6:	48 c7 45 d0 00 00 00 	mov    QWORD PTR [rbp-0x30],0x0
  2049fd:	00 
  2049fe:	0f b7 85 6c ff ff ff 	movzx  eax,WORD PTR [rbp-0x94]
  204a05:	c1 e0 03             	shl    eax,0x3
  204a08:	48 98                	cdqe   
  204a0a:	48 89 45 c8          	mov    QWORD PTR [rbp-0x38],rax
  204a0e:	48 83 7d d0 07       	cmp    QWORD PTR [rbp-0x30],0x7
  204a13:	77 73                	ja     204a88 <io::tty::render_entry_at_buffer(unsigned short, unsigned short)+0x18b>
  204a15:	48 8b 45 e0          	mov    rax,QWORD PTR [rbp-0x20]
  204a19:	48 8d 14 c5 00 00 00 	lea    rdx,[rax*8+0x0]
  204a20:	00 
  204a21:	48 8b 45 d0          	mov    rax,QWORD PTR [rbp-0x30]
  204a25:	48 01 d0             	add    rax,rdx
  204a28:	0f b6 84 05 70 ff ff 	movzx  eax,BYTE PTR [rbp+rax*1-0x90]
  204a2f:	ff 
  204a30:	84 c0                	test   al,al
  204a32:	74 25                	je     204a59 <io::tty::render_entry_at_buffer(unsigned short, unsigned short)+0x15c>
  204a34:	48 8b 45 d8          	mov    rax,QWORD PTR [rbp-0x28]
  204a38:	89 c2                	mov    edx,eax
  204a3a:	48 8b 45 c8          	mov    rax,QWORD PTR [rbp-0x38]
  204a3e:	89 d6                	mov    esi,edx
  204a40:	89 c7                	mov    edi,eax
  204a42:	e8 24 26 00 00       	call   20706b <gfx::shapes::pos(unsigned int, unsigned int)>
  204a47:	48 89 c2             	mov    rdx,rax
  204a4a:	8b 45 bc             	mov    eax,DWORD PTR [rbp-0x44]
  204a4d:	89 c6                	mov    esi,eax
  204a4f:	48 89 d7             	mov    rdi,rdx
  204a52:	e8 3a f9 ff ff       	call   204391 <gfx::screen::plot_pixel_buffer(gfx::shapes::s_pos_point, unsigned int)>
  204a57:	eb 23                	jmp    204a7c <io::tty::render_entry_at_buffer(unsigned short, unsigned short)+0x17f>
  204a59:	48 8b 45 d8          	mov    rax,QWORD PTR [rbp-0x28]
  204a5d:	89 c2                	mov    edx,eax
  204a5f:	48 8b 45 c8          	mov    rax,QWORD PTR [rbp-0x38]
  204a63:	89 d6                	mov    esi,edx
  204a65:	89 c7                	mov    edi,eax
  204a67:	e8 ff 25 00 00       	call   20706b <gfx::shapes::pos(unsigned int, unsigned int)>
  204a6c:	48 89 c2             	mov    rdx,rax
  204a6f:	8b 45 b8             	mov    eax,DWORD PTR [rbp-0x48]
  204a72:	89 c6                	mov    esi,eax
  204a74:	48 89 d7             	mov    rdi,rdx
  204a77:	e8 15 f9 ff ff       	call   204391 <gfx::screen::plot_pixel_buffer(gfx::shapes::s_pos_point, unsigned int)>
  204a7c:	48 83 45 d0 01       	add    QWORD PTR [rbp-0x30],0x1
  204a81:	48 83 45 c8 02       	add    QWORD PTR [rbp-0x38],0x2
  204a86:	eb 86                	jmp    204a0e <io::tty::render_entry_at_buffer(unsigned short, unsigned short)+0x111>
  204a88:	48 83 45 e0 01       	add    QWORD PTR [rbp-0x20],0x1
  204a8d:	48 83 45 d8 02       	add    QWORD PTR [rbp-0x28],0x2
  204a92:	e9 54 ff ff ff       	jmp    2049eb <io::tty::render_entry_at_buffer(unsigned short, unsigned short)+0xee>
  204a97:	90                   	nop
  204a98:	48 8b 5d f8          	mov    rbx,QWORD PTR [rbp-0x8]
  204a9c:	c9                   	leave  
  204a9d:	c3                   	ret    

0000000000204a9e <io::tty::render_buffer()>:
  204a9e:	55                   	push   rbp
  204a9f:	48 89 e5             	mov    rbp,rsp
  204aa2:	48 83 ec 10          	sub    rsp,0x10
  204aa6:	66 c7 45 fe 00 00    	mov    WORD PTR [rbp-0x2],0x0
  204aac:	0f b7 55 fe          	movzx  edx,WORD PTR [rbp-0x2]
  204ab0:	48 8b 05 e1 b6 00 00 	mov    rax,QWORD PTR [rip+0xb6e1]        # 210198 <io::tty::vga_height>
  204ab7:	48 39 c2             	cmp    rdx,rax
  204aba:	73 41                	jae    204afd <io::tty::render_buffer()+0x5f>
  204abc:	66 c7 45 fc 00 00    	mov    WORD PTR [rbp-0x4],0x0
  204ac2:	0f b7 55 fc          	movzx  edx,WORD PTR [rbp-0x4]
  204ac6:	48 8b 05 c3 b6 00 00 	mov    rax,QWORD PTR [rip+0xb6c3]        # 210190 <io::tty::vga_width>
  204acd:	48 39 c2             	cmp    rdx,rax
  204ad0:	73 1e                	jae    204af0 <io::tty::render_buffer()+0x52>
  204ad2:	0f b7 55 fe          	movzx  edx,WORD PTR [rbp-0x2]
  204ad6:	0f b7 45 fc          	movzx  eax,WORD PTR [rbp-0x4]
  204ada:	89 d6                	mov    esi,edx
  204adc:	89 c7                	mov    edi,eax
  204ade:	e8 79 fc ff ff       	call   20475c <io::tty::render_entry_at(unsigned short, unsigned short)>
  204ae3:	0f b7 45 fc          	movzx  eax,WORD PTR [rbp-0x4]
  204ae7:	83 c0 01             	add    eax,0x1
  204aea:	66 89 45 fc          	mov    WORD PTR [rbp-0x4],ax
  204aee:	eb d2                	jmp    204ac2 <io::tty::render_buffer()+0x24>
  204af0:	0f b7 45 fe          	movzx  eax,WORD PTR [rbp-0x2]
  204af4:	83 c0 01             	add    eax,0x1
  204af7:	66 89 45 fe          	mov    WORD PTR [rbp-0x2],ax
  204afb:	eb af                	jmp    204aac <io::tty::render_buffer()+0xe>
  204afd:	90                   	nop
  204afe:	c9                   	leave  
  204aff:	c3                   	ret    

0000000000204b00 <io::tty::shift()>:
  204b00:	55                   	push   rbp
  204b01:	48 89 e5             	mov    rbp,rsp
  204b04:	53                   	push   rbx
  204b05:	48 83 ec 28          	sub    rsp,0x28
  204b09:	48 c7 45 e8 00 00 00 	mov    QWORD PTR [rbp-0x18],0x0
  204b10:	00 
  204b11:	48 8b 05 78 b6 00 00 	mov    rax,QWORD PTR [rip+0xb678]        # 210190 <io::tty::vga_width>
  204b18:	48 39 45 e8          	cmp    QWORD PTR [rbp-0x18],rax
  204b1c:	73 2b                	jae    204b49 <io::tty::shift()+0x49>
  204b1e:	48 8b 15 8b b6 00 00 	mov    rdx,QWORD PTR [rip+0xb68b]        # 2101b0 <io::tty::text_buffer>
  204b25:	48 8b 45 e8          	mov    rax,QWORD PTR [rbp-0x18]
  204b29:	48 01 c0             	add    rax,rax
  204b2c:	48 8d 1c 02          	lea    rbx,[rdx+rax*1]
  204b30:	be 00 00 00 00       	mov    esi,0x0
  204b35:	bf 00 00 00 00       	mov    edi,0x0
  204b3a:	e8 9c f8 ff ff       	call   2043db <io::tty::vga_entry(unsigned char, unsigned char)>
  204b3f:	66 89 03             	mov    WORD PTR [rbx],ax
  204b42:	48 83 45 e8 01       	add    QWORD PTR [rbp-0x18],0x1
  204b47:	eb c8                	jmp    204b11 <io::tty::shift()+0x11>
  204b49:	48 c7 45 e0 00 00 00 	mov    QWORD PTR [rbp-0x20],0x0
  204b50:	00 
  204b51:	48 8b 05 38 b6 00 00 	mov    rax,QWORD PTR [rip+0xb638]        # 210190 <io::tty::vga_width>
  204b58:	48 39 45 e0          	cmp    QWORD PTR [rbp-0x20],rax
  204b5c:	73 5a                	jae    204bb8 <io::tty::shift()+0xb8>
  204b5e:	48 c7 45 d8 00 00 00 	mov    QWORD PTR [rbp-0x28],0x0
  204b65:	00 
  204b66:	48 8b 15 2b b6 00 00 	mov    rdx,QWORD PTR [rip+0xb62b]        # 210198 <io::tty::vga_height>
  204b6d:	48 8b 05 1c b6 00 00 	mov    rax,QWORD PTR [rip+0xb61c]        # 210190 <io::tty::vga_width>
  204b74:	48 0f af c2          	imul   rax,rdx
  204b78:	48 39 45 d8          	cmp    QWORD PTR [rbp-0x28],rax
  204b7c:	73 33                	jae    204bb1 <io::tty::shift()+0xb1>
  204b7e:	48 8b 15 2b b6 00 00 	mov    rdx,QWORD PTR [rip+0xb62b]        # 2101b0 <io::tty::text_buffer>
  204b85:	48 8b 45 d8          	mov    rax,QWORD PTR [rbp-0x28]
  204b89:	48 83 c0 01          	add    rax,0x1
  204b8d:	48 01 c0             	add    rax,rax
  204b90:	48 01 d0             	add    rax,rdx
  204b93:	48 8b 0d 16 b6 00 00 	mov    rcx,QWORD PTR [rip+0xb616]        # 2101b0 <io::tty::text_buffer>
  204b9a:	48 8b 55 d8          	mov    rdx,QWORD PTR [rbp-0x28]
  204b9e:	48 01 d2             	add    rdx,rdx
  204ba1:	48 01 ca             	add    rdx,rcx
  204ba4:	0f b7 00             	movzx  eax,WORD PTR [rax]
  204ba7:	66 89 02             	mov    WORD PTR [rdx],ax
  204baa:	48 83 45 d8 01       	add    QWORD PTR [rbp-0x28],0x1
  204baf:	eb b5                	jmp    204b66 <io::tty::shift()+0x66>
  204bb1:	48 83 45 e0 01       	add    QWORD PTR [rbp-0x20],0x1
  204bb6:	eb 99                	jmp    204b51 <io::tty::shift()+0x51>
  204bb8:	48 8b 05 e1 b5 00 00 	mov    rax,QWORD PTR [rip+0xb5e1]        # 2101a0 <io::tty::row>
  204bbf:	48 83 e8 01          	sub    rax,0x1
  204bc3:	48 89 05 d6 b5 00 00 	mov    QWORD PTR [rip+0xb5d6],rax        # 2101a0 <io::tty::row>
  204bca:	e8 cf fe ff ff       	call   204a9e <io::tty::render_buffer()>
  204bcf:	90                   	nop
